ARM GAS  C:\Users\sunyi\AppData\Local\Temp\ccBCGGMJ.s 			page 1


   1              		.cpu cortex-m0
   2              		.fpu softvfp
   3              		.eabi_attribute 20, 1
   4              		.eabi_attribute 21, 1
   5              		.eabi_attribute 23, 3
   6              		.eabi_attribute 24, 1
   7              		.eabi_attribute 25, 1
   8              		.eabi_attribute 26, 1
   9              		.eabi_attribute 30, 1
  10              		.eabi_attribute 34, 0
  11              		.eabi_attribute 18, 4
  12              		.code	16
  13              		.file	"BLE_gatt.c"
  14              		.text
  15              	.Ltext0:
  16              		.cfi_sections	.debug_frame
  17              		.section	.text.CyBle_GattsReInitGattDb,"ax",%progbits
  18              		.align	2
  19              		.global	CyBle_GattsReInitGattDb
  20              		.code	16
  21              		.thumb_func
  22              		.type	CyBle_GattsReInitGattDb, %function
  23              	CyBle_GattsReInitGattDb:
  24              	.LFB2:
  25              		.file 1 ".\\Generated_Source\\PSoC4\\BLE_gatt.c"
   1:.\Generated_Source\PSoC4/BLE_gatt.c **** /***************************************************************************//**
   2:.\Generated_Source\PSoC4/BLE_gatt.c **** * \file CYBLE_gatt.c
   3:.\Generated_Source\PSoC4/BLE_gatt.c **** * \version 3.10
   4:.\Generated_Source\PSoC4/BLE_gatt.c **** * 
   5:.\Generated_Source\PSoC4/BLE_gatt.c **** * \brief
   6:.\Generated_Source\PSoC4/BLE_gatt.c **** *  This file contains the source code for the GATT API of the BLE Component.
   7:.\Generated_Source\PSoC4/BLE_gatt.c **** * 
   8:.\Generated_Source\PSoC4/BLE_gatt.c **** ********************************************************************************
   9:.\Generated_Source\PSoC4/BLE_gatt.c **** * \copyright
  10:.\Generated_Source\PSoC4/BLE_gatt.c **** * Copyright 2014-2016, Cypress Semiconductor Corporation.  All rights reserved.
  11:.\Generated_Source\PSoC4/BLE_gatt.c **** * You may use this file only in accordance with the license, terms, conditions,
  12:.\Generated_Source\PSoC4/BLE_gatt.c **** * disclaimers, and limitations in the end user license agreement accompanying
  13:.\Generated_Source\PSoC4/BLE_gatt.c **** * the software package with which this file was provided.
  14:.\Generated_Source\PSoC4/BLE_gatt.c **** *******************************************************************************/
  15:.\Generated_Source\PSoC4/BLE_gatt.c **** 
  16:.\Generated_Source\PSoC4/BLE_gatt.c **** 
  17:.\Generated_Source\PSoC4/BLE_gatt.c **** #include "BLE_eventHandler.h"
  18:.\Generated_Source\PSoC4/BLE_gatt.c **** 
  19:.\Generated_Source\PSoC4/BLE_gatt.c **** 
  20:.\Generated_Source\PSoC4/BLE_gatt.c **** /***************************************
  21:.\Generated_Source\PSoC4/BLE_gatt.c **** * Global variables
  22:.\Generated_Source\PSoC4/BLE_gatt.c **** ***************************************/
  23:.\Generated_Source\PSoC4/BLE_gatt.c **** 
  24:.\Generated_Source\PSoC4/BLE_gatt.c **** CYBLE_STATE_T cyBle_state;
  25:.\Generated_Source\PSoC4/BLE_gatt.c **** 
  26:.\Generated_Source\PSoC4/BLE_gatt.c **** #if ((CYBLE_MODE_PROFILE) && (CYBLE_BONDING_REQUIREMENT == CYBLE_BONDING_YES))
  27:.\Generated_Source\PSoC4/BLE_gatt.c ****     
  28:.\Generated_Source\PSoC4/BLE_gatt.c **** #if(CYBLE_MODE_PROFILE)
  29:.\Generated_Source\PSoC4/BLE_gatt.c ****     #if defined(__ARMCC_VERSION)
  30:.\Generated_Source\PSoC4/BLE_gatt.c ****         CY_ALIGN(CYDEV_FLS_ROW_SIZE) const CY_BLE_FLASH_STORAGE cyBle_flashStorage CY_SECTION(".cy_
  31:.\Generated_Source\PSoC4/BLE_gatt.c ****     #elif defined (__GNUC__)
  32:.\Generated_Source\PSoC4/BLE_gatt.c ****         const CY_BLE_FLASH_STORAGE cyBle_flashStorage CY_SECTION(".cy_checksum_exclude")
ARM GAS  C:\Users\sunyi\AppData\Local\Temp\ccBCGGMJ.s 			page 2


  33:.\Generated_Source\PSoC4/BLE_gatt.c ****             CY_ALIGN(CYDEV_FLS_ROW_SIZE) =
  34:.\Generated_Source\PSoC4/BLE_gatt.c ****     #elif defined (__ICCARM__)
  35:.\Generated_Source\PSoC4/BLE_gatt.c ****         #pragma data_alignment=CY_FLASH_SIZEOF_ROW
  36:.\Generated_Source\PSoC4/BLE_gatt.c ****         #pragma location=".cy_checksum_exclude"
  37:.\Generated_Source\PSoC4/BLE_gatt.c ****         const CY_BLE_FLASH_STORAGE cyBle_flashStorage =
  38:.\Generated_Source\PSoC4/BLE_gatt.c ****     #endif  /* (__ARMCC_VERSION) */
  39:.\Generated_Source\PSoC4/BLE_gatt.c ****     {
  40:.\Generated_Source\PSoC4/BLE_gatt.c ****         { 0x00u, 0x00u, 0x00u, 0x00u, 0x00u, 0x00u, 0x00u, 0x00u, 0x00u, 0x00u, 0x00u, 0x00u, 0x00u
  41:.\Generated_Source\PSoC4/BLE_gatt.c ****         0x00u, 0x00u, 0x00u, 0x00u, 0x00u, 0x00u, 0x00u, 0x00u, 0x00u, 0x00u, 0x00u, 0x00u, 0x00u, 
  42:.\Generated_Source\PSoC4/BLE_gatt.c ****         0x00u, 0x00u, 0x00u, 0x00u, 0x00u, 0x00u, 0x00u, 0x00u, 0x00u, 0x00u, 0x00u, 0x00u, 0x00u, 
  43:.\Generated_Source\PSoC4/BLE_gatt.c ****         0x00u, 0x00u, 0x00u, 0x00u, 0x00u, 0x00u, 0x00u, 0x00u, 0x00u, 0x00u, 0x00u, 0x00u, 0x00u, 
  44:.\Generated_Source\PSoC4/BLE_gatt.c ****         0x00u, 0x00u, 0x00u, 0x00u, 0x00u, 0x00u, 0x00u, 0x00u, 0x00u, 0x00u, 0x00u, 0x00u, 0x00u, 
  45:.\Generated_Source\PSoC4/BLE_gatt.c ****         0x00u, 0x00u, 0x00u, 0x00u, 0x00u, 0x00u, 0x00u, 0x00u, 0x00u, 0x00u, 0x00u, 0x00u, 0x00u, 
  46:.\Generated_Source\PSoC4/BLE_gatt.c ****         0x00u, 0x00u, 0x00u, 0x00u, 0x00u, 0x00u, 0x00u, 0x00u, 0x00u, 0x00u, 0x00u, 0x00u, 0x00u, 
  47:.\Generated_Source\PSoC4/BLE_gatt.c ****         0x00u, 0x00u, 0x00u, 0x00u, 0x00u, 0x00u, 0x00u, 0x00u, 0x00u, 0x00u, 0x00u, 0x00u, 0x00u, 
  48:.\Generated_Source\PSoC4/BLE_gatt.c ****         0x00u, 0x00u, 0x00u, 0x00u, 0x00u, 0x00u, 0x00u, 0x00u, 0x00u, 0x00u, 0x00u, 0x00u, 0x00u, 
  49:.\Generated_Source\PSoC4/BLE_gatt.c ****         0x00u, 0x00u, 0x00u, 0x00u, 0x00u, 0x00u, 0x00u, 0x00u, 0x00u, 0x00u, 0x00u, 0x00u, 0x00u, 
  50:.\Generated_Source\PSoC4/BLE_gatt.c ****         0x00u, 0x00u, 0x00u, 0x00u, 0x00u, 0x00u, 0x00u, 0x00u, 0x00u, 0x00u, 0x00u, 0x00u, 0x00u, 
  51:.\Generated_Source\PSoC4/BLE_gatt.c ****         0x00u, 0x00u, 0x00u, 0x00u, 0x00u, 0x00u, 0x00u, 0x00u, 0x00u, 0x00u, 0x00u, 0x00u, 0x00u, 
  52:.\Generated_Source\PSoC4/BLE_gatt.c ****         0x00u, 0x00u, 0x00u, 0x00u, 0x00u, 0x00u, 0x00u, 0x00u, 0x00u, 0x00u, 0x00u, 0x00u, 0x00u, 
  53:.\Generated_Source\PSoC4/BLE_gatt.c ****         0x00u, 0x00u, 0x00u, 0x00u, 0x00u, 0x00u, 0x00u, 0x00u, 0x00u, 0x00u, 0x00u, 0x00u, 0x00u, 
  54:.\Generated_Source\PSoC4/BLE_gatt.c ****         0x00u, 0x00u, 0x00u, 0x00u, 0x00u, 0x00u, 0x00u, 0x00u, 0x00u, 0x00u, 0x00u, 0x00u, 0x00u, 
  55:.\Generated_Source\PSoC4/BLE_gatt.c ****         0x00u, 0x00u, 0x00u, 0x00u, 0x00u, 0x00u, 0x00u, 0x00u, 0x00u, 0x00u, 0x00u, 0x00u, 0x00u, 
  56:.\Generated_Source\PSoC4/BLE_gatt.c ****         0x00u, 0x00u, 0x00u, 0x00u, 0x00u, 0x00u, 0x00u, 0x00u, 0x00u, 0x00u, 0x00u, 0x00u, 0x00u, 
  57:.\Generated_Source\PSoC4/BLE_gatt.c ****         0x00u, 0x00u, 0x00u, 0x00u, 0x00u, 0x00u, 0x00u, 0x00u, 0x00u, 0x00u, 0x00u, 0x00u, 0x00u, 
  58:.\Generated_Source\PSoC4/BLE_gatt.c ****         0x00u, 0x00u, 0x00u, 0x00u, 0x00u, 0x00u, 0x00u, 0x00u, 0x00u, 0x00u, 0x00u, 0x00u, 0x00u, 
  59:.\Generated_Source\PSoC4/BLE_gatt.c ****         0x00u, 0x00u, 0x00u, 0x00u, 0x00u, 0x00u, 0x00u, 0x00u, 0x00u, 0x00u, 0x00u, 0x00u, 0x00u, 
  60:.\Generated_Source\PSoC4/BLE_gatt.c ****         0x00u, 0x00u, 0x00u, 0x00u, 0x00u, 0x00u, 0x00u, 0x00u, 0x00u, 0x00u, 0x00u, 0x00u, 0x00u, 
  61:.\Generated_Source\PSoC4/BLE_gatt.c ****         0x00u, 0x00u, 0x00u, 0x00u, 0x00u, 0x00u, 0x00u, 0x00u, 0x00u, 0x00u, 0x00u, 0x00u, 0x00u, 
  62:.\Generated_Source\PSoC4/BLE_gatt.c ****         0x00u, 0x00u, 0x00u, 0x00u, 0x00u, 0x00u, 0x00u, 0x00u, 0x00u, 0x00u, 0x00u, 0x00u, 0x00u, 
  63:.\Generated_Source\PSoC4/BLE_gatt.c ****         0x00u, 0x00u, 0x00u, 0x00u, 0x00u, 0x00u, 0x00u, 0x00u, 0x00u, 0x00u, 0x00u, 0x00u, 0x00u, 
  64:.\Generated_Source\PSoC4/BLE_gatt.c ****         0x00u, 0x00u, 0x00u, 0x00u, 0x00u, 0x00u, 0x00u, 0x00u, 0x00u, 0x00u, 0x00u, 0x00u, 0x00u, 
  65:.\Generated_Source\PSoC4/BLE_gatt.c ****         0x00u, 0x00u, 0x00u, 0x00u, 0x00u, 0x00u, 0x00u, 0x00u, 0x00u, 0x00u, 0x00u, 0x00u, 0x00u, 
  66:.\Generated_Source\PSoC4/BLE_gatt.c ****         0x00u, 0x00u, 0x00u, 0x00u, 0x00u, 0x00u, 0x00u, 0x00u, 0x00u, 0x00u, 0x00u, 0x00u, 0x00u, 
  67:.\Generated_Source\PSoC4/BLE_gatt.c ****         0x00u, 0x00u, 0x00u, 0x00u, 0x00u, 0x00u, 0x00u, 0x00u, 0x00u, 0x00u, 0x00u, 0x00u, 0x00u, 
  68:.\Generated_Source\PSoC4/BLE_gatt.c ****         0x00u, 0x00u, 0x00u, 0x00u, 0x00u, 0x00u, 0x00u, 0x00u, 0x00u, 0x00u, 0x00u, 0x00u, 0x00u, 
  69:.\Generated_Source\PSoC4/BLE_gatt.c ****         0x00u, 0x00u, 0x00u, 0x00u, 0x00u, 0x00u, 0x00u, 0x00u, 0x00u, 0x00u, 0x00u, 0x00u, 0x00u, 
  70:.\Generated_Source\PSoC4/BLE_gatt.c ****         0x00u, 0x00u, 0x00u, 0x00u, 0x00u, 0x00u, 0x00u, 0x00u, 0x00u, 0x00u, 0x00u, 0x00u, 0x00u, 
  71:.\Generated_Source\PSoC4/BLE_gatt.c ****         0x00u, 0x00u, 0x00u, 0x00u, 0x00u, 0x00u, 0x00u, 0x00u, 0x00u, 0x00u, 0x00u, 0x00u, 0x00u, 
  72:.\Generated_Source\PSoC4/BLE_gatt.c ****         0x00u, 0x00u, 0x00u, 0x00u, 0x00u, 0x00u, 0x00u, 0x00u, 0x00u, 0x00u, 0x00u, 0x00u, 0x00u, 
  73:.\Generated_Source\PSoC4/BLE_gatt.c ****         0x00u, 0x00u, 0x00u, 0x00u, 0x00u, 0x00u, 0x00u, 0x00u, 0x00u, 0x00u, 0x00u, 0x00u, 0x00u, 
  74:.\Generated_Source\PSoC4/BLE_gatt.c ****         0x00u, 0x00u, 0x00u, 0x00u, 0x00u, 0x00u, 0x00u, 0x00u, 0x00u, 0x00u, 0x00u, 0x00u, 0x00u, 
  75:.\Generated_Source\PSoC4/BLE_gatt.c ****         0x00u, 0x00u, 0x00u, 0x00u, 0x00u, 0x00u, 0x00u, 0x00u, 0x00u, 0x00u, 0x00u, 0x00u, 0x00u, 
  76:.\Generated_Source\PSoC4/BLE_gatt.c ****         0x00u, 0x00u, 0x00u, 0x00u, 0x00u, 0x00u, 0x00u, 0x00u, 0x00u, 0x00u, 0x00u, 0x00u, 0x00u, 
  77:.\Generated_Source\PSoC4/BLE_gatt.c ****         0x00u, 0x00u, 0x00u, 0x00u, 0x00u, 0x00u, 0x00u, 0x00u, 0x00u, 0x00u, 0x00u, 0x00u, 0x00u, 
  78:.\Generated_Source\PSoC4/BLE_gatt.c ****         0x00u, 0x00u, 0x00u, 0x00u, 0x00u, 0x00u, 0x00u, 0x00u, 0x00u, 0x00u, 0x00u, 0x00u, 0x00u, 
  79:.\Generated_Source\PSoC4/BLE_gatt.c ****         0x00u, 0x00u, 0x00u, 0x00u, 0x00u, 0x00u, 0x00u, 0x00u, 0x00u, 0x00u }, 
  80:.\Generated_Source\PSoC4/BLE_gatt.c ****         {{
  81:.\Generated_Source\PSoC4/BLE_gatt.c ****             0x00u, 0x00u, 
  82:.\Generated_Source\PSoC4/BLE_gatt.c ****         },
  83:.\Generated_Source\PSoC4/BLE_gatt.c ****         {
  84:.\Generated_Source\PSoC4/BLE_gatt.c ****             0x00u, 0x00u, 
  85:.\Generated_Source\PSoC4/BLE_gatt.c ****         },
  86:.\Generated_Source\PSoC4/BLE_gatt.c ****         {
  87:.\Generated_Source\PSoC4/BLE_gatt.c ****             0x00u, 0x00u, 
  88:.\Generated_Source\PSoC4/BLE_gatt.c ****         },
  89:.\Generated_Source\PSoC4/BLE_gatt.c ****         {
ARM GAS  C:\Users\sunyi\AppData\Local\Temp\ccBCGGMJ.s 			page 3


  90:.\Generated_Source\PSoC4/BLE_gatt.c ****             0x00u, 0x00u, 
  91:.\Generated_Source\PSoC4/BLE_gatt.c ****         },
  92:.\Generated_Source\PSoC4/BLE_gatt.c ****         {
  93:.\Generated_Source\PSoC4/BLE_gatt.c ****             0x00u, 0x00u, 
  94:.\Generated_Source\PSoC4/BLE_gatt.c ****         }}, 
  95:.\Generated_Source\PSoC4/BLE_gatt.c ****         0x02u, /* CYBLE_GATT_DB_CCCD_COUNT */ 
  96:.\Generated_Source\PSoC4/BLE_gatt.c ****         0x05u, /* CYBLE_GAP_MAX_BONDED_DEVICE */ 
  97:.\Generated_Source\PSoC4/BLE_gatt.c ****     };
  98:.\Generated_Source\PSoC4/BLE_gatt.c **** #endif /* (CYBLE_MODE_PROFILE) */
  99:.\Generated_Source\PSoC4/BLE_gatt.c **** 
 100:.\Generated_Source\PSoC4/BLE_gatt.c **** #endif  /* (CYBLE_MODE_PROFILE) && (CYBLE_BONDING_REQUIREMENT == CYBLE_BONDING_YES) */
 101:.\Generated_Source\PSoC4/BLE_gatt.c **** 
 102:.\Generated_Source\PSoC4/BLE_gatt.c **** #if(CYBLE_GATT_ROLE_SERVER)
 103:.\Generated_Source\PSoC4/BLE_gatt.c ****     
 104:.\Generated_Source\PSoC4/BLE_gatt.c ****     const CYBLE_GATTS_T cyBle_gatts =
 105:.\Generated_Source\PSoC4/BLE_gatt.c **** {
 106:.\Generated_Source\PSoC4/BLE_gatt.c ****     0x000Au,    /* Handle of the GATT service */
 107:.\Generated_Source\PSoC4/BLE_gatt.c ****     0x000Cu,    /* Handle of the Service Changed characteristic */
 108:.\Generated_Source\PSoC4/BLE_gatt.c ****     0x000Du,    /* Handle of the Client Characteristic Configuration descriptor */
 109:.\Generated_Source\PSoC4/BLE_gatt.c **** };
 110:.\Generated_Source\PSoC4/BLE_gatt.c ****     
 111:.\Generated_Source\PSoC4/BLE_gatt.c ****     static uint8 cyBle_attValues[0x19u] = {
 112:.\Generated_Source\PSoC4/BLE_gatt.c ****     /* Device Name */
 113:.\Generated_Source\PSoC4/BLE_gatt.c ****     (uint8)'L', (uint8)'E', (uint8)'D', (uint8)' ', (uint8)'L', (uint8)'a', (uint8)'b', (uint8)' ',
 114:.\Generated_Source\PSoC4/BLE_gatt.c **** 
 115:.\Generated_Source\PSoC4/BLE_gatt.c ****     /* Appearance */
 116:.\Generated_Source\PSoC4/BLE_gatt.c ****     0x00u, 0x02u, 
 117:.\Generated_Source\PSoC4/BLE_gatt.c **** 
 118:.\Generated_Source\PSoC4/BLE_gatt.c ****     /* Peripheral Preferred Connection Parameters */
 119:.\Generated_Source\PSoC4/BLE_gatt.c ****     0x06u, 0x00u, 0x28u, 0x00u, 0x00u, 0x00u, 0xE8u, 0x03u, 
 120:.\Generated_Source\PSoC4/BLE_gatt.c **** 
 121:.\Generated_Source\PSoC4/BLE_gatt.c ****     /* Central Address Resolution */
 122:.\Generated_Source\PSoC4/BLE_gatt.c ****     0x00u, 
 123:.\Generated_Source\PSoC4/BLE_gatt.c **** 
 124:.\Generated_Source\PSoC4/BLE_gatt.c ****     /* Service Changed */
 125:.\Generated_Source\PSoC4/BLE_gatt.c ****     0x00u, 0x00u, 0x00u, 0x00u, 
 126:.\Generated_Source\PSoC4/BLE_gatt.c **** 
 127:.\Generated_Source\PSoC4/BLE_gatt.c ****     /* Alert Level */
 128:.\Generated_Source\PSoC4/BLE_gatt.c ****     0x00u, 
 129:.\Generated_Source\PSoC4/BLE_gatt.c **** 
 130:.\Generated_Source\PSoC4/BLE_gatt.c **** };
 131:.\Generated_Source\PSoC4/BLE_gatt.c **** #if(CYBLE_GATT_DB_CCCD_COUNT != 0u)
 132:.\Generated_Source\PSoC4/BLE_gatt.c **** uint8 cyBle_attValuesCCCD[CYBLE_GATT_DB_CCCD_COUNT];
 133:.\Generated_Source\PSoC4/BLE_gatt.c **** #endif /* CYBLE_GATT_DB_CCCD_COUNT != 0u */
 134:.\Generated_Source\PSoC4/BLE_gatt.c **** 
 135:.\Generated_Source\PSoC4/BLE_gatt.c **** CYBLE_GATTS_ATT_GEN_VAL_LEN_T cyBle_attValuesLen[CYBLE_GATT_DB_ATT_VAL_COUNT] = {
 136:.\Generated_Source\PSoC4/BLE_gatt.c ****     { 0x0009u, (void *)&cyBle_attValues[0] }, /* Device Name */
 137:.\Generated_Source\PSoC4/BLE_gatt.c ****     { 0x0002u, (void *)&cyBle_attValues[9] }, /* Appearance */
 138:.\Generated_Source\PSoC4/BLE_gatt.c ****     { 0x0008u, (void *)&cyBle_attValues[11] }, /* Peripheral Preferred Connection Parameters */
 139:.\Generated_Source\PSoC4/BLE_gatt.c ****     { 0x0001u, (void *)&cyBle_attValues[19] }, /* Central Address Resolution */
 140:.\Generated_Source\PSoC4/BLE_gatt.c ****     { 0x0004u, (void *)&cyBle_attValues[20] }, /* Service Changed */
 141:.\Generated_Source\PSoC4/BLE_gatt.c ****     { 0x0002u, (void *)&cyBle_attValuesCCCD[0] }, /* Client Characteristic Configuration */
 142:.\Generated_Source\PSoC4/BLE_gatt.c ****     { 0x0001u, (void *)&cyBle_attValues[24] }, /* Alert Level */
 143:.\Generated_Source\PSoC4/BLE_gatt.c **** };
 144:.\Generated_Source\PSoC4/BLE_gatt.c **** 
 145:.\Generated_Source\PSoC4/BLE_gatt.c **** const CYBLE_GATTS_DB_T cyBle_gattDB[0x10u] = {
 146:.\Generated_Source\PSoC4/BLE_gatt.c ****     { 0x0001u, 0x2800u /* Primary service                     */, 0x00000001u /*       */, 0x0009u,
ARM GAS  C:\Users\sunyi\AppData\Local\Temp\ccBCGGMJ.s 			page 4


 147:.\Generated_Source\PSoC4/BLE_gatt.c ****     { 0x0002u, 0x2803u /* Characteristic                      */, 0x00000201u /* rd    */, 0x0003u,
 148:.\Generated_Source\PSoC4/BLE_gatt.c ****     { 0x0003u, 0x2A00u /* Device Name                         */, 0x00000201u /* rd    */, 0x0003u,
 149:.\Generated_Source\PSoC4/BLE_gatt.c ****     { 0x0004u, 0x2803u /* Characteristic                      */, 0x00000201u /* rd    */, 0x0005u,
 150:.\Generated_Source\PSoC4/BLE_gatt.c ****     { 0x0005u, 0x2A01u /* Appearance                          */, 0x00000201u /* rd    */, 0x0005u,
 151:.\Generated_Source\PSoC4/BLE_gatt.c ****     { 0x0006u, 0x2803u /* Characteristic                      */, 0x00000201u /* rd    */, 0x0007u,
 152:.\Generated_Source\PSoC4/BLE_gatt.c ****     { 0x0007u, 0x2A04u /* Peripheral Preferred Connection Par */, 0x00000201u /* rd    */, 0x0007u,
 153:.\Generated_Source\PSoC4/BLE_gatt.c ****     { 0x0008u, 0x2803u /* Characteristic                      */, 0x00000201u /* rd    */, 0x0009u,
 154:.\Generated_Source\PSoC4/BLE_gatt.c ****     { 0x0009u, 0x2AA6u /* Central Address Resolution          */, 0x00000201u /* rd    */, 0x0009u,
 155:.\Generated_Source\PSoC4/BLE_gatt.c ****     { 0x000Au, 0x2800u /* Primary service                     */, 0x00000001u /*       */, 0x000Du,
 156:.\Generated_Source\PSoC4/BLE_gatt.c ****     { 0x000Bu, 0x2803u /* Characteristic                      */, 0x00002001u /* ind   */, 0x000Du,
 157:.\Generated_Source\PSoC4/BLE_gatt.c ****     { 0x000Cu, 0x2A05u /* Service Changed                     */, 0x00002000u /* ind   */, 0x000Du,
 158:.\Generated_Source\PSoC4/BLE_gatt.c ****     { 0x000Du, 0x2902u /* Client Characteristic Configuration */, 0x00000A04u /* rd,wr */, 0x000Du,
 159:.\Generated_Source\PSoC4/BLE_gatt.c ****     { 0x000Eu, 0x2800u /* Primary service                     */, 0x00000001u /*       */, 0x0010u,
 160:.\Generated_Source\PSoC4/BLE_gatt.c ****     { 0x000Fu, 0x2803u /* Characteristic                      */, 0x00000401u /* wwr   */, 0x0010u,
 161:.\Generated_Source\PSoC4/BLE_gatt.c ****     { 0x0010u, 0x2A06u /* Alert Level                         */, 0x00000402u /* wwr   */, 0x0010u,
 162:.\Generated_Source\PSoC4/BLE_gatt.c **** };
 163:.\Generated_Source\PSoC4/BLE_gatt.c **** 
 164:.\Generated_Source\PSoC4/BLE_gatt.c **** 
 165:.\Generated_Source\PSoC4/BLE_gatt.c **** #endif /* (CYBLE_GATT_ROLE_SERVER) */
 166:.\Generated_Source\PSoC4/BLE_gatt.c **** 
 167:.\Generated_Source\PSoC4/BLE_gatt.c **** #if(CYBLE_GATT_ROLE_CLIENT)
 168:.\Generated_Source\PSoC4/BLE_gatt.c ****     
 169:.\Generated_Source\PSoC4/BLE_gatt.c **** CYBLE_CLIENT_STATE_T cyBle_clientState;
 170:.\Generated_Source\PSoC4/BLE_gatt.c **** CYBLE_GATTC_T cyBle_gattc;
 171:.\Generated_Source\PSoC4/BLE_gatt.c **** CYBLE_GATT_ATTR_HANDLE_RANGE_T cyBle_gattcDiscoveryRange;
 172:.\Generated_Source\PSoC4/BLE_gatt.c ****     
 173:.\Generated_Source\PSoC4/BLE_gatt.c **** #endif /* (CYBLE_GATT_ROLE_CLIENT) */
 174:.\Generated_Source\PSoC4/BLE_gatt.c **** 
 175:.\Generated_Source\PSoC4/BLE_gatt.c **** 
 176:.\Generated_Source\PSoC4/BLE_gatt.c **** #if(CYBLE_GATT_ROLE_SERVER)
 177:.\Generated_Source\PSoC4/BLE_gatt.c **** 
 178:.\Generated_Source\PSoC4/BLE_gatt.c **** /****************************************************************************** 
 179:.\Generated_Source\PSoC4/BLE_gatt.c **** * Function Name: CyBle_GattsReInitGattDb
 180:.\Generated_Source\PSoC4/BLE_gatt.c **** ***************************************************************************//**
 181:.\Generated_Source\PSoC4/BLE_gatt.c **** * 
 182:.\Generated_Source\PSoC4/BLE_gatt.c **** *  Reinitializes the GATT database.
 183:.\Generated_Source\PSoC4/BLE_gatt.c **** * 
 184:.\Generated_Source\PSoC4/BLE_gatt.c **** *  \return
 185:.\Generated_Source\PSoC4/BLE_gatt.c **** *  CYBLE_API_RESULT_T: An API result states if the API succeeded or failed with
 186:.\Generated_Source\PSoC4/BLE_gatt.c **** *  error codes:
 187:.\Generated_Source\PSoC4/BLE_gatt.c **** 
 188:.\Generated_Source\PSoC4/BLE_gatt.c **** *  Errors codes                          | Description
 189:.\Generated_Source\PSoC4/BLE_gatt.c **** *  ------------                          | -----------
 190:.\Generated_Source\PSoC4/BLE_gatt.c **** *  CYBLE_ERROR_OK						 | GATT database was reinitialized successfully.
 191:.\Generated_Source\PSoC4/BLE_gatt.c **** *  CYBLE_ERROR_INVALID_STATE             | If the function is called in any state except CYBLE_STAT
 192:.\Generated_Source\PSoC4/BLE_gatt.c **** *  CYBLE_ERROR_INVALID_PARAMETER         | If the Database has zero entries or is a NULL pointer.
 193:.\Generated_Source\PSoC4/BLE_gatt.c **** * 
 194:.\Generated_Source\PSoC4/BLE_gatt.c **** ******************************************************************************/
 195:.\Generated_Source\PSoC4/BLE_gatt.c **** CYBLE_API_RESULT_T CyBle_GattsReInitGattDb(void)
 196:.\Generated_Source\PSoC4/BLE_gatt.c **** {
  26              		.loc 1 196 0
  27              		.cfi_startproc
  28 0000 08B5     		push	{r3, lr}
  29              		.cfi_def_cfa_offset 8
  30              		.cfi_offset 3, -8
  31              		.cfi_offset 14, -4
 197:.\Generated_Source\PSoC4/BLE_gatt.c ****     CYBLE_API_RESULT_T apiResult;
ARM GAS  C:\Users\sunyi\AppData\Local\Temp\ccBCGGMJ.s 			page 5


 198:.\Generated_Source\PSoC4/BLE_gatt.c ****     
 199:.\Generated_Source\PSoC4/BLE_gatt.c ****     if(CYBLE_STATE_DISCONNECTED == CyBle_GetState())
  32              		.loc 1 199 0
  33 0002 064B     		ldr	r3, .L4
  34 0004 1B78     		ldrb	r3, [r3]
  35 0006 042B     		cmp	r3, #4
  36 0008 05D1     		bne	.L3
 200:.\Generated_Source\PSoC4/BLE_gatt.c ****     {
 201:.\Generated_Source\PSoC4/BLE_gatt.c ****         apiResult = CyBle_GattsDbRegister(cyBle_gattDB, CYBLE_GATT_DB_INDEX_COUNT, CYBLE_GATT_DB_MA
  37              		.loc 1 201 0
  38 000a 0548     		ldr	r0, .L4+4
  39 000c 1021     		mov	r1, #16
  40 000e 0922     		mov	r2, #9
  41 0010 FFF7FEFF 		bl	CyBle_GattsDbRegister
  42              	.LVL0:
  43 0014 01E0     		b	.L2
  44              	.LVL1:
  45              	.L3:
 202:.\Generated_Source\PSoC4/BLE_gatt.c ****     }
 203:.\Generated_Source\PSoC4/BLE_gatt.c ****     else
 204:.\Generated_Source\PSoC4/BLE_gatt.c ****     {
 205:.\Generated_Source\PSoC4/BLE_gatt.c ****         apiResult = CYBLE_ERROR_INVALID_STATE;
  46              		.loc 1 205 0
  47 0016 0420     		mov	r0, #4
  48 0018 FF30     		add	r0, r0, #255
  49              	.L2:
  50              	.LVL2:
 206:.\Generated_Source\PSoC4/BLE_gatt.c ****     }
 207:.\Generated_Source\PSoC4/BLE_gatt.c ****     
 208:.\Generated_Source\PSoC4/BLE_gatt.c ****     return(apiResult);
 209:.\Generated_Source\PSoC4/BLE_gatt.c **** }
  51              		.loc 1 209 0
  52              		@ sp needed
  53 001a 08BD     		pop	{r3, pc}
  54              	.L5:
  55              		.align	2
  56              	.L4:
  57 001c 00000000 		.word	cyBle_state
  58 0020 00000000 		.word	.LANCHOR0
  59              		.cfi_endproc
  60              	.LFE2:
  61              		.size	CyBle_GattsReInitGattDb, .-CyBle_GattsReInitGattDb
  62              		.section	.text.CyBle_GattsWriteEventHandler,"ax",%progbits
  63              		.align	2
  64              		.global	CyBle_GattsWriteEventHandler
  65              		.code	16
  66              		.thumb_func
  67              		.type	CyBle_GattsWriteEventHandler, %function
  68              	CyBle_GattsWriteEventHandler:
  69              	.LFB3:
 210:.\Generated_Source\PSoC4/BLE_gatt.c **** 
 211:.\Generated_Source\PSoC4/BLE_gatt.c **** 
 212:.\Generated_Source\PSoC4/BLE_gatt.c **** /****************************************************************************** 
 213:.\Generated_Source\PSoC4/BLE_gatt.c **** * Function Name: CyBle_GattsWriteEventHandler
 214:.\Generated_Source\PSoC4/BLE_gatt.c **** ***************************************************************************//**
 215:.\Generated_Source\PSoC4/BLE_gatt.c **** * 
 216:.\Generated_Source\PSoC4/BLE_gatt.c **** *  Handles the Write Request Event for GATT service.
ARM GAS  C:\Users\sunyi\AppData\Local\Temp\ccBCGGMJ.s 			page 6


 217:.\Generated_Source\PSoC4/BLE_gatt.c **** * 
 218:.\Generated_Source\PSoC4/BLE_gatt.c **** *  \param eventParam: The pointer to the data structure specified by the event.
 219:.\Generated_Source\PSoC4/BLE_gatt.c **** * 
 220:.\Generated_Source\PSoC4/BLE_gatt.c **** *  \return
 221:.\Generated_Source\PSoC4/BLE_gatt.c **** *  CYBLE_GATT_ERR_CODE_T: An API result returns one of the following status 
 222:.\Generated_Source\PSoC4/BLE_gatt.c **** *  values.
 223:.\Generated_Source\PSoC4/BLE_gatt.c **** 
 224:.\Generated_Source\PSoC4/BLE_gatt.c **** *  Errors codes                          | Description
 225:.\Generated_Source\PSoC4/BLE_gatt.c **** *  --------------------                  | -----------
 226:.\Generated_Source\PSoC4/BLE_gatt.c **** *  CYBLE_GATT_ERR_NONE                   | Write is successful.
 227:.\Generated_Source\PSoC4/BLE_gatt.c **** * 
 228:.\Generated_Source\PSoC4/BLE_gatt.c **** ******************************************************************************/
 229:.\Generated_Source\PSoC4/BLE_gatt.c **** CYBLE_GATT_ERR_CODE_T CyBle_GattsWriteEventHandler(CYBLE_GATTS_WRITE_REQ_PARAM_T *eventParam)
 230:.\Generated_Source\PSoC4/BLE_gatt.c **** {
  70              		.loc 1 230 0
  71              		.cfi_startproc
  72              	.LVL3:
  73 0000 38B5     		push	{r3, r4, r5, lr}
  74              		.cfi_def_cfa_offset 16
  75              		.cfi_offset 3, -16
  76              		.cfi_offset 4, -12
  77              		.cfi_offset 5, -8
  78              		.cfi_offset 14, -4
  79              	.LVL4:
 231:.\Generated_Source\PSoC4/BLE_gatt.c ****     CYBLE_GATT_ERR_CODE_T gattErr = CYBLE_GATT_ERR_NONE;
 232:.\Generated_Source\PSoC4/BLE_gatt.c ****     
 233:.\Generated_Source\PSoC4/BLE_gatt.c ****     /* Client Characteristic Configuration descriptor write request */
 234:.\Generated_Source\PSoC4/BLE_gatt.c ****     if(eventParam->handleValPair.attrHandle == cyBle_gatts.cccdHandle)
  80              		.loc 1 234 0
  81 0002 8389     		ldrh	r3, [r0, #12]
  82 0004 0D2B     		cmp	r3, #13
  83 0006 20D1     		bne	.L10
  84 0008 041C     		mov	r4, r0
 235:.\Generated_Source\PSoC4/BLE_gatt.c ****     {
 236:.\Generated_Source\PSoC4/BLE_gatt.c ****         /* Store value to database */
 237:.\Generated_Source\PSoC4/BLE_gatt.c ****         gattErr = CyBle_GattsWriteAttributeValue(&eventParam->handleValPair, 0u, 
  85              		.loc 1 237 0
  86 000a 0430     		add	r0, r0, #4
  87              	.LVL5:
  88 000c 0021     		mov	r1, #0
  89 000e 221C     		mov	r2, r4
  90 0010 3333     		add	r3, r3, #51
  91 0012 FFF7FEFF 		bl	CyBle_GattsWriteAttributeValue
  92              	.LVL6:
  93 0016 051E     		sub	r5, r0, #0
  94              	.LVL7:
 238:.\Generated_Source\PSoC4/BLE_gatt.c ****                         &eventParam->connHandle, CYBLE_GATT_DB_PEER_INITIATED);
 239:.\Generated_Source\PSoC4/BLE_gatt.c ****         
 240:.\Generated_Source\PSoC4/BLE_gatt.c ****         if(CYBLE_GATT_ERR_NONE == gattErr)
  95              		.loc 1 240 0
  96 0018 11D1     		bne	.L8
 241:.\Generated_Source\PSoC4/BLE_gatt.c ****         {
 242:.\Generated_Source\PSoC4/BLE_gatt.c ****             if(CYBLE_IS_INDICATION_ENABLED_IN_PTR(eventParam->handleValPair.value.val))
  97              		.loc 1 242 0
  98 001a 6068     		ldr	r0, [r4, #4]
  99              	.LVL8:
 100 001c FFF7FEFF 		bl	CyBle_Get16ByPtr
ARM GAS  C:\Users\sunyi\AppData\Local\Temp\ccBCGGMJ.s 			page 7


 101              	.LVL9:
 102 0020 8307     		lsl	r3, r0, #30
 103 0022 06D5     		bpl	.L9
 243:.\Generated_Source\PSoC4/BLE_gatt.c ****             {
 244:.\Generated_Source\PSoC4/BLE_gatt.c ****                 CyBle_ApplCallback((uint32)CYBLE_EVT_GATTS_INDICATION_ENABLED, eventParam);
 104              		.loc 1 244 0
 105 0024 0A4B     		ldr	r3, .L11
 106 0026 1B68     		ldr	r3, [r3]
 107 0028 8220     		mov	r0, #130
 108 002a 4000     		lsl	r0, r0, #1
 109 002c 211C     		mov	r1, r4
 110 002e 9847     		blx	r3
 111              	.LVL10:
 112 0030 05E0     		b	.L8
 113              	.L9:
 245:.\Generated_Source\PSoC4/BLE_gatt.c ****             }
 246:.\Generated_Source\PSoC4/BLE_gatt.c ****             else
 247:.\Generated_Source\PSoC4/BLE_gatt.c ****             {
 248:.\Generated_Source\PSoC4/BLE_gatt.c ****                 CyBle_ApplCallback((uint32)CYBLE_EVT_GATTS_INDICATION_DISABLED, eventParam);
 114              		.loc 1 248 0
 115 0032 074B     		ldr	r3, .L11
 116 0034 1B68     		ldr	r3, [r3]
 117 0036 0620     		mov	r0, #6
 118 0038 FF30     		add	r0, r0, #255
 119 003a 211C     		mov	r1, r4
 120 003c 9847     		blx	r3
 121              	.LVL11:
 122              	.L8:
 249:.\Generated_Source\PSoC4/BLE_gatt.c ****             }
 250:.\Generated_Source\PSoC4/BLE_gatt.c ****         }
 251:.\Generated_Source\PSoC4/BLE_gatt.c ****         cyBle_eventHandlerFlag &= (uint8)~CYBLE_CALLBACK;
 123              		.loc 1 251 0
 124 003e 054A     		ldr	r2, .L11+4
 125 0040 1378     		ldrb	r3, [r2]
 126 0042 0121     		mov	r1, #1
 127 0044 8B43     		bic	r3, r1
 128 0046 1370     		strb	r3, [r2]
 129 0048 00E0     		b	.L7
 130              	.LVL12:
 131              	.L10:
 231:.\Generated_Source\PSoC4/BLE_gatt.c ****     
 132              		.loc 1 231 0
 133 004a 0025     		mov	r5, #0
 134              	.LVL13:
 135              	.L7:
 252:.\Generated_Source\PSoC4/BLE_gatt.c ****     }
 253:.\Generated_Source\PSoC4/BLE_gatt.c ****     return (gattErr);
 254:.\Generated_Source\PSoC4/BLE_gatt.c **** }
 136              		.loc 1 254 0
 137 004c 281C     		mov	r0, r5
 138              		@ sp needed
 139              	.LVL14:
 140 004e 38BD     		pop	{r3, r4, r5, pc}
 141              	.L12:
 142              		.align	2
 143              	.L11:
 144 0050 00000000 		.word	CyBle_ApplCallback
ARM GAS  C:\Users\sunyi\AppData\Local\Temp\ccBCGGMJ.s 			page 8


 145 0054 00000000 		.word	cyBle_eventHandlerFlag
 146              		.cfi_endproc
 147              	.LFE3:
 148              		.size	CyBle_GattsWriteEventHandler, .-CyBle_GattsWriteEventHandler
 149              		.global	cyBle_gattDB
 150              		.global	cyBle_attValuesLen
 151              		.comm	cyBle_attValuesCCCD,2,4
 152              		.global	cyBle_gatts
 153              		.comm	cyBle_state,1,1
 154              		.section	.rodata
 155              		.align	2
 156              		.set	.LANCHOR0,. + 0
 157              		.type	cyBle_gattDB, %object
 158              		.size	cyBle_gattDB, 320
 159              	cyBle_gattDB:
 160 0000 0100     		.short	1
 161 0002 0028     		.short	10240
 162 0004 01000000 		.word	1
 163 0008 0900     		.short	9
 164 000a 0000     		.space	2
 165 000c 0018     		.short	6144
 166 000e 0000     		.space	2
 167 0010 00000000 		.word	0
 168 0014 0200     		.short	2
 169 0016 0328     		.short	10243
 170 0018 01020000 		.word	513
 171 001c 0300     		.short	3
 172 001e 0000     		.space	2
 173 0020 002A     		.short	10752
 174 0022 0000     		.space	2
 175 0024 00000000 		.word	0
 176 0028 0300     		.short	3
 177 002a 002A     		.short	10752
 178 002c 01020000 		.word	513
 179 0030 0300     		.short	3
 180 0032 0000     		.space	2
 181 0034 0900     		.short	9
 182 0036 0000     		.space	2
 183 0038 00000000 		.word	cyBle_attValuesLen
 184 003c 0400     		.short	4
 185 003e 0328     		.short	10243
 186 0040 01020000 		.word	513
 187 0044 0500     		.short	5
 188 0046 0000     		.space	2
 189 0048 012A     		.short	10753
 190 004a 0000     		.space	2
 191 004c 00000000 		.word	0
 192 0050 0500     		.short	5
 193 0052 012A     		.short	10753
 194 0054 01020000 		.word	513
 195 0058 0500     		.short	5
 196 005a 0000     		.space	2
 197 005c 0200     		.short	2
 198 005e 0000     		.space	2
 199 0060 08000000 		.word	cyBle_attValuesLen+8
 200 0064 0600     		.short	6
 201 0066 0328     		.short	10243
ARM GAS  C:\Users\sunyi\AppData\Local\Temp\ccBCGGMJ.s 			page 9


 202 0068 01020000 		.word	513
 203 006c 0700     		.short	7
 204 006e 0000     		.space	2
 205 0070 042A     		.short	10756
 206 0072 0000     		.space	2
 207 0074 00000000 		.word	0
 208 0078 0700     		.short	7
 209 007a 042A     		.short	10756
 210 007c 01020000 		.word	513
 211 0080 0700     		.short	7
 212 0082 0000     		.space	2
 213 0084 0800     		.short	8
 214 0086 0000     		.space	2
 215 0088 10000000 		.word	cyBle_attValuesLen+16
 216 008c 0800     		.short	8
 217 008e 0328     		.short	10243
 218 0090 01020000 		.word	513
 219 0094 0900     		.short	9
 220 0096 0000     		.space	2
 221 0098 A62A     		.short	10918
 222 009a 0000     		.space	2
 223 009c 00000000 		.word	0
 224 00a0 0900     		.short	9
 225 00a2 A62A     		.short	10918
 226 00a4 01020000 		.word	513
 227 00a8 0900     		.short	9
 228 00aa 0000     		.space	2
 229 00ac 0100     		.short	1
 230 00ae 0000     		.space	2
 231 00b0 18000000 		.word	cyBle_attValuesLen+24
 232 00b4 0A00     		.short	10
 233 00b6 0028     		.short	10240
 234 00b8 01000000 		.word	1
 235 00bc 0D00     		.short	13
 236 00be 0000     		.space	2
 237 00c0 0118     		.short	6145
 238 00c2 0000     		.space	2
 239 00c4 00000000 		.word	0
 240 00c8 0B00     		.short	11
 241 00ca 0328     		.short	10243
 242 00cc 01200000 		.word	8193
 243 00d0 0D00     		.short	13
 244 00d2 0000     		.space	2
 245 00d4 052A     		.short	10757
 246 00d6 0000     		.space	2
 247 00d8 00000000 		.word	0
 248 00dc 0C00     		.short	12
 249 00de 052A     		.short	10757
 250 00e0 00200000 		.word	8192
 251 00e4 0D00     		.short	13
 252 00e6 0000     		.space	2
 253 00e8 0400     		.short	4
 254 00ea 0000     		.space	2
 255 00ec 20000000 		.word	cyBle_attValuesLen+32
 256 00f0 0D00     		.short	13
 257 00f2 0229     		.short	10498
 258 00f4 040A0000 		.word	2564
ARM GAS  C:\Users\sunyi\AppData\Local\Temp\ccBCGGMJ.s 			page 10


 259 00f8 0D00     		.short	13
 260 00fa 0000     		.space	2
 261 00fc 0200     		.short	2
 262 00fe 0000     		.space	2
 263 0100 28000000 		.word	cyBle_attValuesLen+40
 264 0104 0E00     		.short	14
 265 0106 0028     		.short	10240
 266 0108 01000000 		.word	1
 267 010c 1000     		.short	16
 268 010e 0000     		.space	2
 269 0110 0218     		.short	6146
 270 0112 0000     		.space	2
 271 0114 00000000 		.word	0
 272 0118 0F00     		.short	15
 273 011a 0328     		.short	10243
 274 011c 01040000 		.word	1025
 275 0120 1000     		.short	16
 276 0122 0000     		.space	2
 277 0124 062A     		.short	10758
 278 0126 0000     		.space	2
 279 0128 00000000 		.word	0
 280 012c 1000     		.short	16
 281 012e 062A     		.short	10758
 282 0130 02040000 		.word	1026
 283 0134 1000     		.short	16
 284 0136 0000     		.space	2
 285 0138 0100     		.short	1
 286 013a 0000     		.space	2
 287 013c 30000000 		.word	cyBle_attValuesLen+48
 288              		.type	cyBle_gatts, %object
 289              		.size	cyBle_gatts, 6
 290              	cyBle_gatts:
 291 0140 0A00     		.short	10
 292 0142 0C00     		.short	12
 293 0144 0D00     		.short	13
 294 0146 0000     		.data
 295              		.align	2
 296              		.type	cyBle_attValuesLen, %object
 297              		.size	cyBle_attValuesLen, 56
 298              	cyBle_attValuesLen:
 299 0000 0900     		.short	9
 300 0002 0000     		.space	2
 301 0004 38000000 		.word	cyBle_attValues
 302 0008 0200     		.short	2
 303 000a 0000     		.space	2
 304 000c 41000000 		.word	cyBle_attValues+9
 305 0010 0800     		.short	8
 306 0012 0000     		.space	2
 307 0014 43000000 		.word	cyBle_attValues+11
 308 0018 0100     		.short	1
 309 001a 0000     		.space	2
 310 001c 4B000000 		.word	cyBle_attValues+19
 311 0020 0400     		.short	4
 312 0022 0000     		.space	2
 313 0024 4C000000 		.word	cyBle_attValues+20
 314 0028 0200     		.short	2
 315 002a 0000     		.space	2
ARM GAS  C:\Users\sunyi\AppData\Local\Temp\ccBCGGMJ.s 			page 11


 316 002c 00000000 		.word	cyBle_attValuesCCCD
 317 0030 0100     		.short	1
 318 0032 0000     		.space	2
 319 0034 50000000 		.word	cyBle_attValues+24
 320              		.type	cyBle_attValues, %object
 321              		.size	cyBle_attValues, 25
 322              	cyBle_attValues:
 323 0038 4C       		.byte	76
 324 0039 45       		.byte	69
 325 003a 44       		.byte	68
 326 003b 20       		.byte	32
 327 003c 4C       		.byte	76
 328 003d 61       		.byte	97
 329 003e 62       		.byte	98
 330 003f 20       		.byte	32
 331 0040 32       		.byte	50
 332 0041 00       		.byte	0
 333 0042 02       		.byte	2
 334 0043 06       		.byte	6
 335 0044 00       		.byte	0
 336 0045 28       		.byte	40
 337 0046 00       		.byte	0
 338 0047 00       		.byte	0
 339 0048 00       		.byte	0
 340 0049 E8       		.byte	-24
 341 004a 03       		.byte	3
 342 004b 00       		.byte	0
 343 004c 00       		.byte	0
 344 004d 00       		.byte	0
 345 004e 00       		.byte	0
 346 004f 00       		.byte	0
 347 0050 00       		.byte	0
 348 0051 000000   		.text
 349              	.Letext0:
 350              		.file 2 ".\\Generated_Source\\PSoC4\\cytypes.h"
 351              		.file 3 ".\\Generated_Source\\PSoC4\\BLE_Stack.h"
 352              		.file 4 ".\\Generated_Source\\PSoC4\\BLE_StackGatt.h"
 353              		.file 5 ".\\Generated_Source\\PSoC4\\BLE_StackGattServer.h"
 354              		.file 6 ".\\Generated_Source\\PSoC4\\BLE_StackGattDb.h"
 355              		.file 7 ".\\Generated_Source\\PSoC4\\BLE.h"
 356              		.file 8 ".\\Generated_Source\\PSoC4\\BLE_gatt.h"
 357              		.file 9 ".\\Generated_Source\\PSoC4\\BLE_eventHandler.h"