ARM GAS  C:\Users\sunyi\AppData\Local\Temp\ccaHIROV.s 			page 1


   1              		.cpu cortex-m0
   2              		.fpu softvfp
   3              		.eabi_attribute 20, 1
   4              		.eabi_attribute 21, 1
   5              		.eabi_attribute 23, 3
   6              		.eabi_attribute 24, 1
   7              		.eabi_attribute 25, 1
   8              		.eabi_attribute 26, 1
   9              		.eabi_attribute 30, 1
  10              		.eabi_attribute 34, 0
  11              		.eabi_attribute 18, 4
  12              		.code	16
  13              		.file	"PWM.c"
  14              		.text
  15              	.Ltext0:
  16              		.cfi_sections	.debug_frame
  17              		.section	.text.PWM_Stop,"ax",%progbits
  18              		.align	2
  19              		.global	PWM_Stop
  20              		.code	16
  21              		.thumb_func
  22              		.type	PWM_Stop, %function
  23              	PWM_Stop:
  24              	.LFB5:
  25              		.file 1 ".\\Generated_Source\\PSoC4\\PWM.c"
   1:.\Generated_Source\PSoC4/PWM.c **** /*******************************************************************************
   2:.\Generated_Source\PSoC4/PWM.c **** * File Name: PWM.c
   3:.\Generated_Source\PSoC4/PWM.c **** * Version 2.0
   4:.\Generated_Source\PSoC4/PWM.c **** *
   5:.\Generated_Source\PSoC4/PWM.c **** * Description:
   6:.\Generated_Source\PSoC4/PWM.c **** *  This file provides the source code to the API for the PWM
   7:.\Generated_Source\PSoC4/PWM.c **** *  component
   8:.\Generated_Source\PSoC4/PWM.c **** *
   9:.\Generated_Source\PSoC4/PWM.c **** * Note:
  10:.\Generated_Source\PSoC4/PWM.c **** *  None
  11:.\Generated_Source\PSoC4/PWM.c **** *
  12:.\Generated_Source\PSoC4/PWM.c **** ********************************************************************************
  13:.\Generated_Source\PSoC4/PWM.c **** * Copyright 2013-2014, Cypress Semiconductor Corporation.  All rights reserved.
  14:.\Generated_Source\PSoC4/PWM.c **** * You may use this file only in accordance with the license, terms, conditions,
  15:.\Generated_Source\PSoC4/PWM.c **** * disclaimers, and limitations in the end user license agreement accompanying
  16:.\Generated_Source\PSoC4/PWM.c **** * the software package with which this file was provided.
  17:.\Generated_Source\PSoC4/PWM.c **** *******************************************************************************/
  18:.\Generated_Source\PSoC4/PWM.c **** 
  19:.\Generated_Source\PSoC4/PWM.c **** #include "PWM.h"
  20:.\Generated_Source\PSoC4/PWM.c **** 
  21:.\Generated_Source\PSoC4/PWM.c **** uint8 PWM_initVar = 0u;
  22:.\Generated_Source\PSoC4/PWM.c **** 
  23:.\Generated_Source\PSoC4/PWM.c **** 
  24:.\Generated_Source\PSoC4/PWM.c **** /*******************************************************************************
  25:.\Generated_Source\PSoC4/PWM.c **** * Function Name: PWM_Init
  26:.\Generated_Source\PSoC4/PWM.c **** ********************************************************************************
  27:.\Generated_Source\PSoC4/PWM.c **** *
  28:.\Generated_Source\PSoC4/PWM.c **** * Summary:
  29:.\Generated_Source\PSoC4/PWM.c **** *  Initialize/Restore default PWM configuration.
  30:.\Generated_Source\PSoC4/PWM.c **** *
  31:.\Generated_Source\PSoC4/PWM.c **** * Parameters:
  32:.\Generated_Source\PSoC4/PWM.c **** *  None
ARM GAS  C:\Users\sunyi\AppData\Local\Temp\ccaHIROV.s 			page 2


  33:.\Generated_Source\PSoC4/PWM.c **** *
  34:.\Generated_Source\PSoC4/PWM.c **** * Return:
  35:.\Generated_Source\PSoC4/PWM.c **** *  None
  36:.\Generated_Source\PSoC4/PWM.c **** *
  37:.\Generated_Source\PSoC4/PWM.c **** *******************************************************************************/
  38:.\Generated_Source\PSoC4/PWM.c **** void PWM_Init(void)
  39:.\Generated_Source\PSoC4/PWM.c **** {
  40:.\Generated_Source\PSoC4/PWM.c **** 
  41:.\Generated_Source\PSoC4/PWM.c ****     /* Set values from customizer to CTRL */
  42:.\Generated_Source\PSoC4/PWM.c ****     #if (PWM__QUAD == PWM_CONFIG)
  43:.\Generated_Source\PSoC4/PWM.c ****         PWM_CONTROL_REG = PWM_CTRL_QUAD_BASE_CONFIG;
  44:.\Generated_Source\PSoC4/PWM.c ****         
  45:.\Generated_Source\PSoC4/PWM.c ****         /* Set values from customizer to CTRL1 */
  46:.\Generated_Source\PSoC4/PWM.c ****         PWM_TRIG_CONTROL1_REG  = PWM_QUAD_SIGNALS_MODES;
  47:.\Generated_Source\PSoC4/PWM.c **** 
  48:.\Generated_Source\PSoC4/PWM.c ****         /* Set values from customizer to INTR */
  49:.\Generated_Source\PSoC4/PWM.c ****         PWM_SetInterruptMode(PWM_QUAD_INTERRUPT_MASK);
  50:.\Generated_Source\PSoC4/PWM.c ****         
  51:.\Generated_Source\PSoC4/PWM.c ****          /* Set other values */
  52:.\Generated_Source\PSoC4/PWM.c ****         PWM_SetCounterMode(PWM_COUNT_DOWN);
  53:.\Generated_Source\PSoC4/PWM.c ****         PWM_WritePeriod(PWM_QUAD_PERIOD_INIT_VALUE);
  54:.\Generated_Source\PSoC4/PWM.c ****         PWM_WriteCounter(PWM_QUAD_PERIOD_INIT_VALUE);
  55:.\Generated_Source\PSoC4/PWM.c ****     #endif  /* (PWM__QUAD == PWM_CONFIG) */
  56:.\Generated_Source\PSoC4/PWM.c **** 
  57:.\Generated_Source\PSoC4/PWM.c ****     #if (PWM__TIMER == PWM_CONFIG)
  58:.\Generated_Source\PSoC4/PWM.c ****         PWM_CONTROL_REG = PWM_CTRL_TIMER_BASE_CONFIG;
  59:.\Generated_Source\PSoC4/PWM.c ****         
  60:.\Generated_Source\PSoC4/PWM.c ****         /* Set values from customizer to CTRL1 */
  61:.\Generated_Source\PSoC4/PWM.c ****         PWM_TRIG_CONTROL1_REG  = PWM_TIMER_SIGNALS_MODES;
  62:.\Generated_Source\PSoC4/PWM.c ****     
  63:.\Generated_Source\PSoC4/PWM.c ****         /* Set values from customizer to INTR */
  64:.\Generated_Source\PSoC4/PWM.c ****         PWM_SetInterruptMode(PWM_TC_INTERRUPT_MASK);
  65:.\Generated_Source\PSoC4/PWM.c ****         
  66:.\Generated_Source\PSoC4/PWM.c ****         /* Set other values from customizer */
  67:.\Generated_Source\PSoC4/PWM.c ****         PWM_WritePeriod(PWM_TC_PERIOD_VALUE );
  68:.\Generated_Source\PSoC4/PWM.c **** 
  69:.\Generated_Source\PSoC4/PWM.c ****         #if (PWM__COMPARE == PWM_TC_COMP_CAP_MODE)
  70:.\Generated_Source\PSoC4/PWM.c ****             PWM_WriteCompare(PWM_TC_COMPARE_VALUE);
  71:.\Generated_Source\PSoC4/PWM.c **** 
  72:.\Generated_Source\PSoC4/PWM.c ****             #if (1u == PWM_TC_COMPARE_SWAP)
  73:.\Generated_Source\PSoC4/PWM.c ****                 PWM_SetCompareSwap(1u);
  74:.\Generated_Source\PSoC4/PWM.c ****                 PWM_WriteCompareBuf(PWM_TC_COMPARE_BUF_VALUE);
  75:.\Generated_Source\PSoC4/PWM.c ****             #endif  /* (1u == PWM_TC_COMPARE_SWAP) */
  76:.\Generated_Source\PSoC4/PWM.c ****         #endif  /* (PWM__COMPARE == PWM_TC_COMP_CAP_MODE) */
  77:.\Generated_Source\PSoC4/PWM.c **** 
  78:.\Generated_Source\PSoC4/PWM.c ****         /* Initialize counter value */
  79:.\Generated_Source\PSoC4/PWM.c ****         #if (PWM_CY_TCPWM_V2 && PWM_TIMER_UPDOWN_CNT_USED && !PWM_CY_TCPWM_4000)
  80:.\Generated_Source\PSoC4/PWM.c ****             PWM_WriteCounter(1u);
  81:.\Generated_Source\PSoC4/PWM.c ****         #elif(PWM__COUNT_DOWN == PWM_TC_COUNTER_MODE)
  82:.\Generated_Source\PSoC4/PWM.c ****             PWM_WriteCounter(PWM_TC_PERIOD_VALUE);
  83:.\Generated_Source\PSoC4/PWM.c ****         #else
  84:.\Generated_Source\PSoC4/PWM.c ****             PWM_WriteCounter(0u);
  85:.\Generated_Source\PSoC4/PWM.c ****         #endif /* (PWM_CY_TCPWM_V2 && PWM_TIMER_UPDOWN_CNT_USED && !PWM_CY_TCPWM_4000) */
  86:.\Generated_Source\PSoC4/PWM.c ****     #endif  /* (PWM__TIMER == PWM_CONFIG) */
  87:.\Generated_Source\PSoC4/PWM.c **** 
  88:.\Generated_Source\PSoC4/PWM.c ****     #if (PWM__PWM_SEL == PWM_CONFIG)
  89:.\Generated_Source\PSoC4/PWM.c ****         PWM_CONTROL_REG = PWM_CTRL_PWM_BASE_CONFIG;
ARM GAS  C:\Users\sunyi\AppData\Local\Temp\ccaHIROV.s 			page 3


  90:.\Generated_Source\PSoC4/PWM.c **** 
  91:.\Generated_Source\PSoC4/PWM.c ****         #if (PWM__PWM_PR == PWM_PWM_MODE)
  92:.\Generated_Source\PSoC4/PWM.c ****             PWM_CONTROL_REG |= PWM_CTRL_PWM_RUN_MODE;
  93:.\Generated_Source\PSoC4/PWM.c ****             PWM_WriteCounter(PWM_PWM_PR_INIT_VALUE);
  94:.\Generated_Source\PSoC4/PWM.c ****         #else
  95:.\Generated_Source\PSoC4/PWM.c ****             PWM_CONTROL_REG |= PWM_CTRL_PWM_ALIGN | PWM_CTRL_PWM_KILL_EVENT;
  96:.\Generated_Source\PSoC4/PWM.c ****             
  97:.\Generated_Source\PSoC4/PWM.c ****             /* Initialize counter value */
  98:.\Generated_Source\PSoC4/PWM.c ****             #if (PWM_CY_TCPWM_V2 && PWM_PWM_UPDOWN_CNT_USED && !PWM_CY_TCPWM_4000)
  99:.\Generated_Source\PSoC4/PWM.c ****                 PWM_WriteCounter(1u);
 100:.\Generated_Source\PSoC4/PWM.c ****             #elif (PWM__RIGHT == PWM_PWM_ALIGN)
 101:.\Generated_Source\PSoC4/PWM.c ****                 PWM_WriteCounter(PWM_PWM_PERIOD_VALUE);
 102:.\Generated_Source\PSoC4/PWM.c ****             #else 
 103:.\Generated_Source\PSoC4/PWM.c ****                 PWM_WriteCounter(0u);
 104:.\Generated_Source\PSoC4/PWM.c ****             #endif  /* (PWM_CY_TCPWM_V2 && PWM_PWM_UPDOWN_CNT_USED && !PWM_CY_TCPWM_4000) */
 105:.\Generated_Source\PSoC4/PWM.c ****         #endif  /* (PWM__PWM_PR == PWM_PWM_MODE) */
 106:.\Generated_Source\PSoC4/PWM.c **** 
 107:.\Generated_Source\PSoC4/PWM.c ****         #if (PWM__PWM_DT == PWM_PWM_MODE)
 108:.\Generated_Source\PSoC4/PWM.c ****             PWM_CONTROL_REG |= PWM_CTRL_PWM_DEAD_TIME_CYCLE;
 109:.\Generated_Source\PSoC4/PWM.c ****         #endif  /* (PWM__PWM_DT == PWM_PWM_MODE) */
 110:.\Generated_Source\PSoC4/PWM.c **** 
 111:.\Generated_Source\PSoC4/PWM.c ****         #if (PWM__PWM == PWM_PWM_MODE)
 112:.\Generated_Source\PSoC4/PWM.c ****             PWM_CONTROL_REG |= PWM_CTRL_PWM_PRESCALER;
 113:.\Generated_Source\PSoC4/PWM.c ****         #endif  /* (PWM__PWM == PWM_PWM_MODE) */
 114:.\Generated_Source\PSoC4/PWM.c **** 
 115:.\Generated_Source\PSoC4/PWM.c ****         /* Set values from customizer to CTRL1 */
 116:.\Generated_Source\PSoC4/PWM.c ****         PWM_TRIG_CONTROL1_REG  = PWM_PWM_SIGNALS_MODES;
 117:.\Generated_Source\PSoC4/PWM.c ****     
 118:.\Generated_Source\PSoC4/PWM.c ****         /* Set values from customizer to INTR */
 119:.\Generated_Source\PSoC4/PWM.c ****         PWM_SetInterruptMode(PWM_PWM_INTERRUPT_MASK);
 120:.\Generated_Source\PSoC4/PWM.c **** 
 121:.\Generated_Source\PSoC4/PWM.c ****         /* Set values from customizer to CTRL2 */
 122:.\Generated_Source\PSoC4/PWM.c ****         #if (PWM__PWM_PR == PWM_PWM_MODE)
 123:.\Generated_Source\PSoC4/PWM.c ****             PWM_TRIG_CONTROL2_REG =
 124:.\Generated_Source\PSoC4/PWM.c ****                     (PWM_CC_MATCH_NO_CHANGE    |
 125:.\Generated_Source\PSoC4/PWM.c ****                     PWM_OVERLOW_NO_CHANGE      |
 126:.\Generated_Source\PSoC4/PWM.c ****                     PWM_UNDERFLOW_NO_CHANGE);
 127:.\Generated_Source\PSoC4/PWM.c ****         #else
 128:.\Generated_Source\PSoC4/PWM.c ****             #if (PWM__LEFT == PWM_PWM_ALIGN)
 129:.\Generated_Source\PSoC4/PWM.c ****                 PWM_TRIG_CONTROL2_REG = PWM_PWM_MODE_LEFT;
 130:.\Generated_Source\PSoC4/PWM.c ****             #endif  /* ( PWM_PWM_LEFT == PWM_PWM_ALIGN) */
 131:.\Generated_Source\PSoC4/PWM.c **** 
 132:.\Generated_Source\PSoC4/PWM.c ****             #if (PWM__RIGHT == PWM_PWM_ALIGN)
 133:.\Generated_Source\PSoC4/PWM.c ****                 PWM_TRIG_CONTROL2_REG = PWM_PWM_MODE_RIGHT;
 134:.\Generated_Source\PSoC4/PWM.c ****             #endif  /* ( PWM_PWM_RIGHT == PWM_PWM_ALIGN) */
 135:.\Generated_Source\PSoC4/PWM.c **** 
 136:.\Generated_Source\PSoC4/PWM.c ****             #if (PWM__CENTER == PWM_PWM_ALIGN)
 137:.\Generated_Source\PSoC4/PWM.c ****                 PWM_TRIG_CONTROL2_REG = PWM_PWM_MODE_CENTER;
 138:.\Generated_Source\PSoC4/PWM.c ****             #endif  /* ( PWM_PWM_CENTER == PWM_PWM_ALIGN) */
 139:.\Generated_Source\PSoC4/PWM.c **** 
 140:.\Generated_Source\PSoC4/PWM.c ****             #if (PWM__ASYMMETRIC == PWM_PWM_ALIGN)
 141:.\Generated_Source\PSoC4/PWM.c ****                 PWM_TRIG_CONTROL2_REG = PWM_PWM_MODE_ASYM;
 142:.\Generated_Source\PSoC4/PWM.c ****             #endif  /* (PWM__ASYMMETRIC == PWM_PWM_ALIGN) */
 143:.\Generated_Source\PSoC4/PWM.c ****         #endif  /* (PWM__PWM_PR == PWM_PWM_MODE) */
 144:.\Generated_Source\PSoC4/PWM.c **** 
 145:.\Generated_Source\PSoC4/PWM.c ****         /* Set other values from customizer */
 146:.\Generated_Source\PSoC4/PWM.c ****         PWM_WritePeriod(PWM_PWM_PERIOD_VALUE );
ARM GAS  C:\Users\sunyi\AppData\Local\Temp\ccaHIROV.s 			page 4


 147:.\Generated_Source\PSoC4/PWM.c ****         PWM_WriteCompare(PWM_PWM_COMPARE_VALUE);
 148:.\Generated_Source\PSoC4/PWM.c **** 
 149:.\Generated_Source\PSoC4/PWM.c ****         #if (1u == PWM_PWM_COMPARE_SWAP)
 150:.\Generated_Source\PSoC4/PWM.c ****             PWM_SetCompareSwap(1u);
 151:.\Generated_Source\PSoC4/PWM.c ****             PWM_WriteCompareBuf(PWM_PWM_COMPARE_BUF_VALUE);
 152:.\Generated_Source\PSoC4/PWM.c ****         #endif  /* (1u == PWM_PWM_COMPARE_SWAP) */
 153:.\Generated_Source\PSoC4/PWM.c **** 
 154:.\Generated_Source\PSoC4/PWM.c ****         #if (1u == PWM_PWM_PERIOD_SWAP)
 155:.\Generated_Source\PSoC4/PWM.c ****             PWM_SetPeriodSwap(1u);
 156:.\Generated_Source\PSoC4/PWM.c ****             PWM_WritePeriodBuf(PWM_PWM_PERIOD_BUF_VALUE);
 157:.\Generated_Source\PSoC4/PWM.c ****         #endif  /* (1u == PWM_PWM_PERIOD_SWAP) */
 158:.\Generated_Source\PSoC4/PWM.c ****     #endif  /* (PWM__PWM_SEL == PWM_CONFIG) */
 159:.\Generated_Source\PSoC4/PWM.c ****     
 160:.\Generated_Source\PSoC4/PWM.c **** }
 161:.\Generated_Source\PSoC4/PWM.c **** 
 162:.\Generated_Source\PSoC4/PWM.c **** 
 163:.\Generated_Source\PSoC4/PWM.c **** /*******************************************************************************
 164:.\Generated_Source\PSoC4/PWM.c **** * Function Name: PWM_Enable
 165:.\Generated_Source\PSoC4/PWM.c **** ********************************************************************************
 166:.\Generated_Source\PSoC4/PWM.c **** *
 167:.\Generated_Source\PSoC4/PWM.c **** * Summary:
 168:.\Generated_Source\PSoC4/PWM.c **** *  Enables the PWM.
 169:.\Generated_Source\PSoC4/PWM.c **** *
 170:.\Generated_Source\PSoC4/PWM.c **** * Parameters:
 171:.\Generated_Source\PSoC4/PWM.c **** *  None
 172:.\Generated_Source\PSoC4/PWM.c **** *
 173:.\Generated_Source\PSoC4/PWM.c **** * Return:
 174:.\Generated_Source\PSoC4/PWM.c **** *  None
 175:.\Generated_Source\PSoC4/PWM.c **** *
 176:.\Generated_Source\PSoC4/PWM.c **** *******************************************************************************/
 177:.\Generated_Source\PSoC4/PWM.c **** void PWM_Enable(void)
 178:.\Generated_Source\PSoC4/PWM.c **** {
 179:.\Generated_Source\PSoC4/PWM.c ****     uint8 enableInterrupts;
 180:.\Generated_Source\PSoC4/PWM.c **** 
 181:.\Generated_Source\PSoC4/PWM.c ****     enableInterrupts = CyEnterCriticalSection();
 182:.\Generated_Source\PSoC4/PWM.c ****     PWM_BLOCK_CONTROL_REG |= PWM_MASK;
 183:.\Generated_Source\PSoC4/PWM.c ****     CyExitCriticalSection(enableInterrupts);
 184:.\Generated_Source\PSoC4/PWM.c **** 
 185:.\Generated_Source\PSoC4/PWM.c ****     /* Start Timer or PWM if start input is absent */
 186:.\Generated_Source\PSoC4/PWM.c ****     #if (PWM__PWM_SEL == PWM_CONFIG)
 187:.\Generated_Source\PSoC4/PWM.c ****         #if (0u == PWM_PWM_START_SIGNAL_PRESENT)
 188:.\Generated_Source\PSoC4/PWM.c ****             PWM_TriggerCommand(PWM_MASK, PWM_CMD_START);
 189:.\Generated_Source\PSoC4/PWM.c ****         #endif /* (0u == PWM_PWM_START_SIGNAL_PRESENT) */
 190:.\Generated_Source\PSoC4/PWM.c ****     #endif /* (PWM__PWM_SEL == PWM_CONFIG) */
 191:.\Generated_Source\PSoC4/PWM.c **** 
 192:.\Generated_Source\PSoC4/PWM.c ****     #if (PWM__TIMER == PWM_CONFIG)
 193:.\Generated_Source\PSoC4/PWM.c ****         #if (0u == PWM_TC_START_SIGNAL_PRESENT)
 194:.\Generated_Source\PSoC4/PWM.c ****             PWM_TriggerCommand(PWM_MASK, PWM_CMD_START);
 195:.\Generated_Source\PSoC4/PWM.c ****         #endif /* (0u == PWM_TC_START_SIGNAL_PRESENT) */
 196:.\Generated_Source\PSoC4/PWM.c ****     #endif /* (PWM__TIMER == PWM_CONFIG) */
 197:.\Generated_Source\PSoC4/PWM.c **** }
 198:.\Generated_Source\PSoC4/PWM.c **** 
 199:.\Generated_Source\PSoC4/PWM.c **** 
 200:.\Generated_Source\PSoC4/PWM.c **** /*******************************************************************************
 201:.\Generated_Source\PSoC4/PWM.c **** * Function Name: PWM_Start
 202:.\Generated_Source\PSoC4/PWM.c **** ********************************************************************************
 203:.\Generated_Source\PSoC4/PWM.c **** *
ARM GAS  C:\Users\sunyi\AppData\Local\Temp\ccaHIROV.s 			page 5


 204:.\Generated_Source\PSoC4/PWM.c **** * Summary:
 205:.\Generated_Source\PSoC4/PWM.c **** *  Initializes the PWM with default customizer
 206:.\Generated_Source\PSoC4/PWM.c **** *  values when called the first time and enables the PWM.
 207:.\Generated_Source\PSoC4/PWM.c **** *  For subsequent calls the configuration is left unchanged and the component is
 208:.\Generated_Source\PSoC4/PWM.c **** *  just enabled.
 209:.\Generated_Source\PSoC4/PWM.c **** *
 210:.\Generated_Source\PSoC4/PWM.c **** * Parameters:
 211:.\Generated_Source\PSoC4/PWM.c **** *  None
 212:.\Generated_Source\PSoC4/PWM.c **** *
 213:.\Generated_Source\PSoC4/PWM.c **** * Return:
 214:.\Generated_Source\PSoC4/PWM.c **** *  None
 215:.\Generated_Source\PSoC4/PWM.c **** *
 216:.\Generated_Source\PSoC4/PWM.c **** * Global variables:
 217:.\Generated_Source\PSoC4/PWM.c **** *  PWM_initVar: global variable is used to indicate initial
 218:.\Generated_Source\PSoC4/PWM.c **** *  configuration of this component.  The variable is initialized to zero and set
 219:.\Generated_Source\PSoC4/PWM.c **** *  to 1 the first time PWM_Start() is called. This allows
 220:.\Generated_Source\PSoC4/PWM.c **** *  enabling/disabling a component without re-initialization in all subsequent
 221:.\Generated_Source\PSoC4/PWM.c **** *  calls to the PWM_Start() routine.
 222:.\Generated_Source\PSoC4/PWM.c **** *
 223:.\Generated_Source\PSoC4/PWM.c **** *******************************************************************************/
 224:.\Generated_Source\PSoC4/PWM.c **** void PWM_Start(void)
 225:.\Generated_Source\PSoC4/PWM.c **** {
 226:.\Generated_Source\PSoC4/PWM.c ****     if (0u == PWM_initVar)
 227:.\Generated_Source\PSoC4/PWM.c ****     {
 228:.\Generated_Source\PSoC4/PWM.c ****         PWM_Init();
 229:.\Generated_Source\PSoC4/PWM.c ****         PWM_initVar = 1u;
 230:.\Generated_Source\PSoC4/PWM.c ****     }
 231:.\Generated_Source\PSoC4/PWM.c **** 
 232:.\Generated_Source\PSoC4/PWM.c ****     PWM_Enable();
 233:.\Generated_Source\PSoC4/PWM.c **** }
 234:.\Generated_Source\PSoC4/PWM.c **** 
 235:.\Generated_Source\PSoC4/PWM.c **** 
 236:.\Generated_Source\PSoC4/PWM.c **** /*******************************************************************************
 237:.\Generated_Source\PSoC4/PWM.c **** * Function Name: PWM_Stop
 238:.\Generated_Source\PSoC4/PWM.c **** ********************************************************************************
 239:.\Generated_Source\PSoC4/PWM.c **** *
 240:.\Generated_Source\PSoC4/PWM.c **** * Summary:
 241:.\Generated_Source\PSoC4/PWM.c **** *  Disables the PWM.
 242:.\Generated_Source\PSoC4/PWM.c **** *
 243:.\Generated_Source\PSoC4/PWM.c **** * Parameters:
 244:.\Generated_Source\PSoC4/PWM.c **** *  None
 245:.\Generated_Source\PSoC4/PWM.c **** *
 246:.\Generated_Source\PSoC4/PWM.c **** * Return:
 247:.\Generated_Source\PSoC4/PWM.c **** *  None
 248:.\Generated_Source\PSoC4/PWM.c **** *
 249:.\Generated_Source\PSoC4/PWM.c **** *******************************************************************************/
 250:.\Generated_Source\PSoC4/PWM.c **** void PWM_Stop(void)
 251:.\Generated_Source\PSoC4/PWM.c **** {
  26              		.loc 1 251 0
  27              		.cfi_startproc
  28 0000 08B5     		push	{r3, lr}
  29              		.cfi_def_cfa_offset 8
  30              		.cfi_offset 3, -8
  31              		.cfi_offset 14, -4
 252:.\Generated_Source\PSoC4/PWM.c ****     uint8 enableInterrupts;
 253:.\Generated_Source\PSoC4/PWM.c **** 
 254:.\Generated_Source\PSoC4/PWM.c ****     enableInterrupts = CyEnterCriticalSection();
ARM GAS  C:\Users\sunyi\AppData\Local\Temp\ccaHIROV.s 			page 6


  32              		.loc 1 254 0
  33 0002 FFF7FEFF 		bl	CyEnterCriticalSection
  34              	.LVL0:
 255:.\Generated_Source\PSoC4/PWM.c **** 
 256:.\Generated_Source\PSoC4/PWM.c ****     PWM_BLOCK_CONTROL_REG &= (uint32)~PWM_MASK;
  35              		.loc 1 256 0
  36 0006 044A     		ldr	r2, .L2
  37 0008 1368     		ldr	r3, [r2]
  38 000a 0121     		mov	r1, #1
  39 000c 8B43     		bic	r3, r1
  40 000e 1360     		str	r3, [r2]
 257:.\Generated_Source\PSoC4/PWM.c **** 
 258:.\Generated_Source\PSoC4/PWM.c ****     CyExitCriticalSection(enableInterrupts);
  41              		.loc 1 258 0
  42 0010 FFF7FEFF 		bl	CyExitCriticalSection
  43              	.LVL1:
 259:.\Generated_Source\PSoC4/PWM.c **** }
  44              		.loc 1 259 0
  45              		@ sp needed
  46 0014 08BD     		pop	{r3, pc}
  47              	.L3:
  48 0016 C046     		.align	2
  49              	.L2:
  50 0018 00002040 		.word	1075838976
  51              		.cfi_endproc
  52              	.LFE5:
  53              		.size	PWM_Stop, .-PWM_Stop
  54              		.section	.text.PWM_SetMode,"ax",%progbits
  55              		.align	2
  56              		.global	PWM_SetMode
  57              		.code	16
  58              		.thumb_func
  59              		.type	PWM_SetMode, %function
  60              	PWM_SetMode:
  61              	.LFB6:
 260:.\Generated_Source\PSoC4/PWM.c **** 
 261:.\Generated_Source\PSoC4/PWM.c **** 
 262:.\Generated_Source\PSoC4/PWM.c **** /*******************************************************************************
 263:.\Generated_Source\PSoC4/PWM.c **** * Function Name: PWM_SetMode
 264:.\Generated_Source\PSoC4/PWM.c **** ********************************************************************************
 265:.\Generated_Source\PSoC4/PWM.c **** *
 266:.\Generated_Source\PSoC4/PWM.c **** * Summary:
 267:.\Generated_Source\PSoC4/PWM.c **** *  Sets the operation mode of the PWM. This function is used when
 268:.\Generated_Source\PSoC4/PWM.c **** *  configured as a generic PWM and the actual mode of operation is
 269:.\Generated_Source\PSoC4/PWM.c **** *  set at runtime. The mode must be set while the component is disabled.
 270:.\Generated_Source\PSoC4/PWM.c **** *
 271:.\Generated_Source\PSoC4/PWM.c **** * Parameters:
 272:.\Generated_Source\PSoC4/PWM.c **** *  mode: Mode for the PWM to operate in
 273:.\Generated_Source\PSoC4/PWM.c **** *   Values:
 274:.\Generated_Source\PSoC4/PWM.c **** *   - PWM_MODE_TIMER_COMPARE - Timer / Counter with
 275:.\Generated_Source\PSoC4/PWM.c **** *                                                 compare capability
 276:.\Generated_Source\PSoC4/PWM.c **** *         - PWM_MODE_TIMER_CAPTURE - Timer / Counter with
 277:.\Generated_Source\PSoC4/PWM.c **** *                                                 capture capability
 278:.\Generated_Source\PSoC4/PWM.c **** *         - PWM_MODE_QUAD - Quadrature decoder
 279:.\Generated_Source\PSoC4/PWM.c **** *         - PWM_MODE_PWM - PWM
 280:.\Generated_Source\PSoC4/PWM.c **** *         - PWM_MODE_PWM_DT - PWM with dead time
 281:.\Generated_Source\PSoC4/PWM.c **** *         - PWM_MODE_PWM_PR - PWM with pseudo random capability
ARM GAS  C:\Users\sunyi\AppData\Local\Temp\ccaHIROV.s 			page 7


 282:.\Generated_Source\PSoC4/PWM.c **** *
 283:.\Generated_Source\PSoC4/PWM.c **** * Return:
 284:.\Generated_Source\PSoC4/PWM.c **** *  None
 285:.\Generated_Source\PSoC4/PWM.c **** *
 286:.\Generated_Source\PSoC4/PWM.c **** *******************************************************************************/
 287:.\Generated_Source\PSoC4/PWM.c **** void PWM_SetMode(uint32 mode)
 288:.\Generated_Source\PSoC4/PWM.c **** {
  62              		.loc 1 288 0
  63              		.cfi_startproc
  64              	.LVL2:
  65 0000 10B5     		push	{r4, lr}
  66              		.cfi_def_cfa_offset 8
  67              		.cfi_offset 4, -8
  68              		.cfi_offset 14, -4
  69 0002 041C     		mov	r4, r0
 289:.\Generated_Source\PSoC4/PWM.c ****     uint8 enableInterrupts;
 290:.\Generated_Source\PSoC4/PWM.c **** 
 291:.\Generated_Source\PSoC4/PWM.c ****     enableInterrupts = CyEnterCriticalSection();
  70              		.loc 1 291 0
  71 0004 FFF7FEFF 		bl	CyEnterCriticalSection
  72              	.LVL3:
 292:.\Generated_Source\PSoC4/PWM.c **** 
 293:.\Generated_Source\PSoC4/PWM.c ****     PWM_CONTROL_REG &= (uint32)~PWM_MODE_MASK;
  73              		.loc 1 293 0
  74 0008 054B     		ldr	r3, .L5
  75 000a 1968     		ldr	r1, [r3]
  76 000c 054A     		ldr	r2, .L5+4
  77 000e 0A40     		and	r2, r1
  78 0010 1A60     		str	r2, [r3]
 294:.\Generated_Source\PSoC4/PWM.c ****     PWM_CONTROL_REG |= mode;
  79              		.loc 1 294 0
  80 0012 1A68     		ldr	r2, [r3]
  81 0014 1443     		orr	r4, r2
  82              	.LVL4:
  83 0016 1C60     		str	r4, [r3]
 295:.\Generated_Source\PSoC4/PWM.c **** 
 296:.\Generated_Source\PSoC4/PWM.c ****     CyExitCriticalSection(enableInterrupts);
  84              		.loc 1 296 0
  85 0018 FFF7FEFF 		bl	CyExitCriticalSection
  86              	.LVL5:
 297:.\Generated_Source\PSoC4/PWM.c **** }
  87              		.loc 1 297 0
  88              		@ sp needed
  89 001c 10BD     		pop	{r4, pc}
  90              	.L6:
  91 001e C046     		.align	2
  92              	.L5:
  93 0020 00012040 		.word	1075839232
  94 0024 FFFFFFF8 		.word	-117440513
  95              		.cfi_endproc
  96              	.LFE6:
  97              		.size	PWM_SetMode, .-PWM_SetMode
  98              		.section	.text.PWM_SetQDMode,"ax",%progbits
  99              		.align	2
 100              		.global	PWM_SetQDMode
 101              		.code	16
 102              		.thumb_func
ARM GAS  C:\Users\sunyi\AppData\Local\Temp\ccaHIROV.s 			page 8


 103              		.type	PWM_SetQDMode, %function
 104              	PWM_SetQDMode:
 105              	.LFB7:
 298:.\Generated_Source\PSoC4/PWM.c **** 
 299:.\Generated_Source\PSoC4/PWM.c **** 
 300:.\Generated_Source\PSoC4/PWM.c **** /*******************************************************************************
 301:.\Generated_Source\PSoC4/PWM.c **** * Function Name: PWM_SetQDMode
 302:.\Generated_Source\PSoC4/PWM.c **** ********************************************************************************
 303:.\Generated_Source\PSoC4/PWM.c **** *
 304:.\Generated_Source\PSoC4/PWM.c **** * Summary:
 305:.\Generated_Source\PSoC4/PWM.c **** *  Sets the the Quadrature Decoder to one of the 3 supported modes.
 306:.\Generated_Source\PSoC4/PWM.c **** *  Its functionality is only applicable to Quadrature Decoder operation.
 307:.\Generated_Source\PSoC4/PWM.c **** *
 308:.\Generated_Source\PSoC4/PWM.c **** * Parameters:
 309:.\Generated_Source\PSoC4/PWM.c **** *  qdMode: Quadrature Decoder mode
 310:.\Generated_Source\PSoC4/PWM.c **** *   Values:
 311:.\Generated_Source\PSoC4/PWM.c **** *         - PWM_MODE_X1 - Counts on phi 1 rising
 312:.\Generated_Source\PSoC4/PWM.c **** *         - PWM_MODE_X2 - Counts on both edges of phi1 (2x faster)
 313:.\Generated_Source\PSoC4/PWM.c **** *         - PWM_MODE_X4 - Counts on both edges of phi1 and phi2
 314:.\Generated_Source\PSoC4/PWM.c **** *                                        (4x faster)
 315:.\Generated_Source\PSoC4/PWM.c **** *
 316:.\Generated_Source\PSoC4/PWM.c **** * Return:
 317:.\Generated_Source\PSoC4/PWM.c **** *  None
 318:.\Generated_Source\PSoC4/PWM.c **** *
 319:.\Generated_Source\PSoC4/PWM.c **** *******************************************************************************/
 320:.\Generated_Source\PSoC4/PWM.c **** void PWM_SetQDMode(uint32 qdMode)
 321:.\Generated_Source\PSoC4/PWM.c **** {
 106              		.loc 1 321 0
 107              		.cfi_startproc
 108              	.LVL6:
 109 0000 10B5     		push	{r4, lr}
 110              		.cfi_def_cfa_offset 8
 111              		.cfi_offset 4, -8
 112              		.cfi_offset 14, -4
 113 0002 041C     		mov	r4, r0
 322:.\Generated_Source\PSoC4/PWM.c ****     uint8 enableInterrupts;
 323:.\Generated_Source\PSoC4/PWM.c **** 
 324:.\Generated_Source\PSoC4/PWM.c ****     enableInterrupts = CyEnterCriticalSection();
 114              		.loc 1 324 0
 115 0004 FFF7FEFF 		bl	CyEnterCriticalSection
 116              	.LVL7:
 325:.\Generated_Source\PSoC4/PWM.c **** 
 326:.\Generated_Source\PSoC4/PWM.c ****     PWM_CONTROL_REG &= (uint32)~PWM_QUAD_MODE_MASK;
 117              		.loc 1 326 0
 118 0008 054B     		ldr	r3, .L8
 119 000a 1968     		ldr	r1, [r3]
 120 000c 054A     		ldr	r2, .L8+4
 121 000e 0A40     		and	r2, r1
 122 0010 1A60     		str	r2, [r3]
 327:.\Generated_Source\PSoC4/PWM.c ****     PWM_CONTROL_REG |= qdMode;
 123              		.loc 1 327 0
 124 0012 1A68     		ldr	r2, [r3]
 125 0014 1443     		orr	r4, r2
 126              	.LVL8:
 127 0016 1C60     		str	r4, [r3]
 328:.\Generated_Source\PSoC4/PWM.c **** 
 329:.\Generated_Source\PSoC4/PWM.c ****     CyExitCriticalSection(enableInterrupts);
ARM GAS  C:\Users\sunyi\AppData\Local\Temp\ccaHIROV.s 			page 9


 128              		.loc 1 329 0
 129 0018 FFF7FEFF 		bl	CyExitCriticalSection
 130              	.LVL9:
 330:.\Generated_Source\PSoC4/PWM.c **** }
 131              		.loc 1 330 0
 132              		@ sp needed
 133 001c 10BD     		pop	{r4, pc}
 134              	.L9:
 135 001e C046     		.align	2
 136              	.L8:
 137 0020 00012040 		.word	1075839232
 138 0024 FFFF8FFF 		.word	-7340033
 139              		.cfi_endproc
 140              	.LFE7:
 141              		.size	PWM_SetQDMode, .-PWM_SetQDMode
 142              		.section	.text.PWM_SetPrescaler,"ax",%progbits
 143              		.align	2
 144              		.global	PWM_SetPrescaler
 145              		.code	16
 146              		.thumb_func
 147              		.type	PWM_SetPrescaler, %function
 148              	PWM_SetPrescaler:
 149              	.LFB8:
 331:.\Generated_Source\PSoC4/PWM.c **** 
 332:.\Generated_Source\PSoC4/PWM.c **** 
 333:.\Generated_Source\PSoC4/PWM.c **** /*******************************************************************************
 334:.\Generated_Source\PSoC4/PWM.c **** * Function Name: PWM_SetPrescaler
 335:.\Generated_Source\PSoC4/PWM.c **** ********************************************************************************
 336:.\Generated_Source\PSoC4/PWM.c **** *
 337:.\Generated_Source\PSoC4/PWM.c **** * Summary:
 338:.\Generated_Source\PSoC4/PWM.c **** *  Sets the prescaler value that is applied to the clock input.  Not applicable
 339:.\Generated_Source\PSoC4/PWM.c **** *  to a PWM with the dead time mode or Quadrature Decoder mode.
 340:.\Generated_Source\PSoC4/PWM.c **** *
 341:.\Generated_Source\PSoC4/PWM.c **** * Parameters:
 342:.\Generated_Source\PSoC4/PWM.c **** *  prescaler: Prescaler divider value
 343:.\Generated_Source\PSoC4/PWM.c **** *   Values:
 344:.\Generated_Source\PSoC4/PWM.c **** *         - PWM_PRESCALE_DIVBY1    - Divide by 1 (no prescaling)
 345:.\Generated_Source\PSoC4/PWM.c **** *         - PWM_PRESCALE_DIVBY2    - Divide by 2
 346:.\Generated_Source\PSoC4/PWM.c **** *         - PWM_PRESCALE_DIVBY4    - Divide by 4
 347:.\Generated_Source\PSoC4/PWM.c **** *         - PWM_PRESCALE_DIVBY8    - Divide by 8
 348:.\Generated_Source\PSoC4/PWM.c **** *         - PWM_PRESCALE_DIVBY16   - Divide by 16
 349:.\Generated_Source\PSoC4/PWM.c **** *         - PWM_PRESCALE_DIVBY32   - Divide by 32
 350:.\Generated_Source\PSoC4/PWM.c **** *         - PWM_PRESCALE_DIVBY64   - Divide by 64
 351:.\Generated_Source\PSoC4/PWM.c **** *         - PWM_PRESCALE_DIVBY128  - Divide by 128
 352:.\Generated_Source\PSoC4/PWM.c **** *
 353:.\Generated_Source\PSoC4/PWM.c **** * Return:
 354:.\Generated_Source\PSoC4/PWM.c **** *  None
 355:.\Generated_Source\PSoC4/PWM.c **** *
 356:.\Generated_Source\PSoC4/PWM.c **** *******************************************************************************/
 357:.\Generated_Source\PSoC4/PWM.c **** void PWM_SetPrescaler(uint32 prescaler)
 358:.\Generated_Source\PSoC4/PWM.c **** {
 150              		.loc 1 358 0
 151              		.cfi_startproc
 152              	.LVL10:
 153 0000 10B5     		push	{r4, lr}
 154              		.cfi_def_cfa_offset 8
 155              		.cfi_offset 4, -8
ARM GAS  C:\Users\sunyi\AppData\Local\Temp\ccaHIROV.s 			page 10


 156              		.cfi_offset 14, -4
 157 0002 041C     		mov	r4, r0
 359:.\Generated_Source\PSoC4/PWM.c ****     uint8 enableInterrupts;
 360:.\Generated_Source\PSoC4/PWM.c **** 
 361:.\Generated_Source\PSoC4/PWM.c ****     enableInterrupts = CyEnterCriticalSection();
 158              		.loc 1 361 0
 159 0004 FFF7FEFF 		bl	CyEnterCriticalSection
 160              	.LVL11:
 362:.\Generated_Source\PSoC4/PWM.c **** 
 363:.\Generated_Source\PSoC4/PWM.c ****     PWM_CONTROL_REG &= (uint32)~PWM_PRESCALER_MASK;
 161              		.loc 1 363 0
 162 0008 054B     		ldr	r3, .L11
 163 000a 1968     		ldr	r1, [r3]
 164 000c 054A     		ldr	r2, .L11+4
 165 000e 0A40     		and	r2, r1
 166 0010 1A60     		str	r2, [r3]
 364:.\Generated_Source\PSoC4/PWM.c ****     PWM_CONTROL_REG |= prescaler;
 167              		.loc 1 364 0
 168 0012 1A68     		ldr	r2, [r3]
 169 0014 1443     		orr	r4, r2
 170              	.LVL12:
 171 0016 1C60     		str	r4, [r3]
 365:.\Generated_Source\PSoC4/PWM.c **** 
 366:.\Generated_Source\PSoC4/PWM.c ****     CyExitCriticalSection(enableInterrupts);
 172              		.loc 1 366 0
 173 0018 FFF7FEFF 		bl	CyExitCriticalSection
 174              	.LVL13:
 367:.\Generated_Source\PSoC4/PWM.c **** }
 175              		.loc 1 367 0
 176              		@ sp needed
 177 001c 10BD     		pop	{r4, pc}
 178              	.L12:
 179 001e C046     		.align	2
 180              	.L11:
 181 0020 00012040 		.word	1075839232
 182 0024 FF00FFFF 		.word	-65281
 183              		.cfi_endproc
 184              	.LFE8:
 185              		.size	PWM_SetPrescaler, .-PWM_SetPrescaler
 186              		.section	.text.PWM_SetOneShot,"ax",%progbits
 187              		.align	2
 188              		.global	PWM_SetOneShot
 189              		.code	16
 190              		.thumb_func
 191              		.type	PWM_SetOneShot, %function
 192              	PWM_SetOneShot:
 193              	.LFB9:
 368:.\Generated_Source\PSoC4/PWM.c **** 
 369:.\Generated_Source\PSoC4/PWM.c **** 
 370:.\Generated_Source\PSoC4/PWM.c **** /*******************************************************************************
 371:.\Generated_Source\PSoC4/PWM.c **** * Function Name: PWM_SetOneShot
 372:.\Generated_Source\PSoC4/PWM.c **** ********************************************************************************
 373:.\Generated_Source\PSoC4/PWM.c **** *
 374:.\Generated_Source\PSoC4/PWM.c **** * Summary:
 375:.\Generated_Source\PSoC4/PWM.c **** *  Writes the register that controls whether the PWM runs
 376:.\Generated_Source\PSoC4/PWM.c **** *  continuously or stops when terminal count is reached.  By default the
 377:.\Generated_Source\PSoC4/PWM.c **** *  PWM operates in the continuous mode.
ARM GAS  C:\Users\sunyi\AppData\Local\Temp\ccaHIROV.s 			page 11


 378:.\Generated_Source\PSoC4/PWM.c **** *
 379:.\Generated_Source\PSoC4/PWM.c **** * Parameters:
 380:.\Generated_Source\PSoC4/PWM.c **** *  oneShotEnable
 381:.\Generated_Source\PSoC4/PWM.c **** *   Values:
 382:.\Generated_Source\PSoC4/PWM.c **** *     - 0 - Continuous
 383:.\Generated_Source\PSoC4/PWM.c **** *     - 1 - Enable One Shot
 384:.\Generated_Source\PSoC4/PWM.c **** *
 385:.\Generated_Source\PSoC4/PWM.c **** * Return:
 386:.\Generated_Source\PSoC4/PWM.c **** *  None
 387:.\Generated_Source\PSoC4/PWM.c **** *
 388:.\Generated_Source\PSoC4/PWM.c **** *******************************************************************************/
 389:.\Generated_Source\PSoC4/PWM.c **** void PWM_SetOneShot(uint32 oneShotEnable)
 390:.\Generated_Source\PSoC4/PWM.c **** {
 194              		.loc 1 390 0
 195              		.cfi_startproc
 196              	.LVL14:
 197 0000 10B5     		push	{r4, lr}
 198              		.cfi_def_cfa_offset 8
 199              		.cfi_offset 4, -8
 200              		.cfi_offset 14, -4
 201 0002 041C     		mov	r4, r0
 391:.\Generated_Source\PSoC4/PWM.c ****     uint8 enableInterrupts;
 392:.\Generated_Source\PSoC4/PWM.c **** 
 393:.\Generated_Source\PSoC4/PWM.c ****     enableInterrupts = CyEnterCriticalSection();
 202              		.loc 1 393 0
 203 0004 FFF7FEFF 		bl	CyEnterCriticalSection
 204              	.LVL15:
 394:.\Generated_Source\PSoC4/PWM.c **** 
 395:.\Generated_Source\PSoC4/PWM.c ****     PWM_CONTROL_REG &= (uint32)~PWM_ONESHOT_MASK;
 205              		.loc 1 395 0
 206 0008 064B     		ldr	r3, .L14
 207 000a 1968     		ldr	r1, [r3]
 208 000c 064A     		ldr	r2, .L14+4
 209 000e 0A40     		and	r2, r1
 210 0010 1A60     		str	r2, [r3]
 396:.\Generated_Source\PSoC4/PWM.c ****     PWM_CONTROL_REG |= ((uint32)((oneShotEnable & PWM_1BIT_MASK) <<
 211              		.loc 1 396 0
 212 0012 1A68     		ldr	r2, [r3]
 213 0014 0121     		mov	r1, #1
 214 0016 0C40     		and	r4, r1
 215              	.LVL16:
 216 0018 A404     		lsl	r4, r4, #18
 217 001a 1443     		orr	r4, r2
 218 001c 1C60     		str	r4, [r3]
 397:.\Generated_Source\PSoC4/PWM.c ****                                                                PWM_ONESHOT_SHIFT));
 398:.\Generated_Source\PSoC4/PWM.c **** 
 399:.\Generated_Source\PSoC4/PWM.c ****     CyExitCriticalSection(enableInterrupts);
 219              		.loc 1 399 0
 220 001e FFF7FEFF 		bl	CyExitCriticalSection
 221              	.LVL17:
 400:.\Generated_Source\PSoC4/PWM.c **** }
 222              		.loc 1 400 0
 223              		@ sp needed
 224 0022 10BD     		pop	{r4, pc}
 225              	.L15:
 226              		.align	2
 227              	.L14:
ARM GAS  C:\Users\sunyi\AppData\Local\Temp\ccaHIROV.s 			page 12


 228 0024 00012040 		.word	1075839232
 229 0028 FFFFFBFF 		.word	-262145
 230              		.cfi_endproc
 231              	.LFE9:
 232              		.size	PWM_SetOneShot, .-PWM_SetOneShot
 233              		.section	.text.PWM_SetPWMMode,"ax",%progbits
 234              		.align	2
 235              		.global	PWM_SetPWMMode
 236              		.code	16
 237              		.thumb_func
 238              		.type	PWM_SetPWMMode, %function
 239              	PWM_SetPWMMode:
 240              	.LFB10:
 401:.\Generated_Source\PSoC4/PWM.c **** 
 402:.\Generated_Source\PSoC4/PWM.c **** 
 403:.\Generated_Source\PSoC4/PWM.c **** /*******************************************************************************
 404:.\Generated_Source\PSoC4/PWM.c **** * Function Name: PWM_SetPWMMode
 405:.\Generated_Source\PSoC4/PWM.c **** ********************************************************************************
 406:.\Generated_Source\PSoC4/PWM.c **** *
 407:.\Generated_Source\PSoC4/PWM.c **** * Summary:
 408:.\Generated_Source\PSoC4/PWM.c **** *  Writes the control register that determines what mode of operation the PWM
 409:.\Generated_Source\PSoC4/PWM.c **** *  output lines are driven in.  There is a setting for what to do on a
 410:.\Generated_Source\PSoC4/PWM.c **** *  comparison match (CC_MATCH), on an overflow (OVERFLOW) and on an underflow
 411:.\Generated_Source\PSoC4/PWM.c **** *  (UNDERFLOW).  The value for each of the three must be ORed together to form
 412:.\Generated_Source\PSoC4/PWM.c **** *  the mode.
 413:.\Generated_Source\PSoC4/PWM.c **** *
 414:.\Generated_Source\PSoC4/PWM.c **** * Parameters:
 415:.\Generated_Source\PSoC4/PWM.c **** *  modeMask: A combination of three mode settings.  Mask must include a value
 416:.\Generated_Source\PSoC4/PWM.c **** *  for each of the three or use one of the preconfigured PWM settings.
 417:.\Generated_Source\PSoC4/PWM.c **** *   Values:
 418:.\Generated_Source\PSoC4/PWM.c **** *     - CC_MATCH_SET        - Set on comparison match
 419:.\Generated_Source\PSoC4/PWM.c **** *     - CC_MATCH_CLEAR      - Clear on comparison match
 420:.\Generated_Source\PSoC4/PWM.c **** *     - CC_MATCH_INVERT     - Invert on comparison match
 421:.\Generated_Source\PSoC4/PWM.c **** *     - CC_MATCH_NO_CHANGE  - No change on comparison match
 422:.\Generated_Source\PSoC4/PWM.c **** *     - OVERLOW_SET         - Set on overflow
 423:.\Generated_Source\PSoC4/PWM.c **** *     - OVERLOW_CLEAR       - Clear on  overflow
 424:.\Generated_Source\PSoC4/PWM.c **** *     - OVERLOW_INVERT      - Invert on overflow
 425:.\Generated_Source\PSoC4/PWM.c **** *     - OVERLOW_NO_CHANGE   - No change on overflow
 426:.\Generated_Source\PSoC4/PWM.c **** *     - UNDERFLOW_SET       - Set on underflow
 427:.\Generated_Source\PSoC4/PWM.c **** *     - UNDERFLOW_CLEAR     - Clear on underflow
 428:.\Generated_Source\PSoC4/PWM.c **** *     - UNDERFLOW_INVERT    - Invert on underflow
 429:.\Generated_Source\PSoC4/PWM.c **** *     - UNDERFLOW_NO_CHANGE - No change on underflow
 430:.\Generated_Source\PSoC4/PWM.c **** *     - PWM_MODE_LEFT       - Setting for left aligned PWM.  Should be combined
 431:.\Generated_Source\PSoC4/PWM.c **** *                             with up counting mode
 432:.\Generated_Source\PSoC4/PWM.c **** *     - PWM_MODE_RIGHT      - Setting for right aligned PWM.  Should be combined
 433:.\Generated_Source\PSoC4/PWM.c **** *                             with down counting mode
 434:.\Generated_Source\PSoC4/PWM.c **** *     - PWM_MODE_CENTER     - Setting for center aligned PWM.  Should be
 435:.\Generated_Source\PSoC4/PWM.c **** *                             combined with up/down 0 mode
 436:.\Generated_Source\PSoC4/PWM.c **** *     - PWM_MODE_ASYM       - Setting for asymmetric PWM.  Should be combined
 437:.\Generated_Source\PSoC4/PWM.c **** *                             with up/down 1 mode
 438:.\Generated_Source\PSoC4/PWM.c **** *
 439:.\Generated_Source\PSoC4/PWM.c **** * Return:
 440:.\Generated_Source\PSoC4/PWM.c **** *  None
 441:.\Generated_Source\PSoC4/PWM.c **** *
 442:.\Generated_Source\PSoC4/PWM.c **** *******************************************************************************/
 443:.\Generated_Source\PSoC4/PWM.c **** void PWM_SetPWMMode(uint32 modeMask)
 444:.\Generated_Source\PSoC4/PWM.c **** {
ARM GAS  C:\Users\sunyi\AppData\Local\Temp\ccaHIROV.s 			page 13


 241              		.loc 1 444 0
 242              		.cfi_startproc
 243              	.LVL18:
 445:.\Generated_Source\PSoC4/PWM.c ****     PWM_TRIG_CONTROL2_REG = (modeMask & PWM_6BIT_MASK);
 244              		.loc 1 445 0
 245 0000 3F23     		mov	r3, #63
 246 0002 1840     		and	r0, r3
 247              	.LVL19:
 248 0004 014B     		ldr	r3, .L17
 249 0006 1860     		str	r0, [r3]
 446:.\Generated_Source\PSoC4/PWM.c **** }
 250              		.loc 1 446 0
 251              		@ sp needed
 252 0008 7047     		bx	lr
 253              	.L18:
 254 000a C046     		.align	2
 255              	.L17:
 256 000c 28012040 		.word	1075839272
 257              		.cfi_endproc
 258              	.LFE10:
 259              		.size	PWM_SetPWMMode, .-PWM_SetPWMMode
 260              		.section	.text.PWM_SetPWMSyncKill,"ax",%progbits
 261              		.align	2
 262              		.global	PWM_SetPWMSyncKill
 263              		.code	16
 264              		.thumb_func
 265              		.type	PWM_SetPWMSyncKill, %function
 266              	PWM_SetPWMSyncKill:
 267              	.LFB11:
 447:.\Generated_Source\PSoC4/PWM.c **** 
 448:.\Generated_Source\PSoC4/PWM.c **** 
 449:.\Generated_Source\PSoC4/PWM.c **** 
 450:.\Generated_Source\PSoC4/PWM.c **** /*******************************************************************************
 451:.\Generated_Source\PSoC4/PWM.c **** * Function Name: PWM_SetPWMSyncKill
 452:.\Generated_Source\PSoC4/PWM.c **** ********************************************************************************
 453:.\Generated_Source\PSoC4/PWM.c **** *
 454:.\Generated_Source\PSoC4/PWM.c **** * Summary:
 455:.\Generated_Source\PSoC4/PWM.c **** *  Writes the register that controls whether the PWM kill signal (stop input)
 456:.\Generated_Source\PSoC4/PWM.c **** *  causes asynchronous or synchronous kill operation.  By default the kill
 457:.\Generated_Source\PSoC4/PWM.c **** *  operation is asynchronous.  This functionality is only applicable to the PWM
 458:.\Generated_Source\PSoC4/PWM.c **** *  and PWM with dead time modes.
 459:.\Generated_Source\PSoC4/PWM.c **** *
 460:.\Generated_Source\PSoC4/PWM.c **** *  For Synchronous mode the kill signal disables both the line and line_n
 461:.\Generated_Source\PSoC4/PWM.c **** *  signals until the next terminal count.
 462:.\Generated_Source\PSoC4/PWM.c **** *
 463:.\Generated_Source\PSoC4/PWM.c **** *  For Asynchronous mode the kill signal disables both the line and line_n
 464:.\Generated_Source\PSoC4/PWM.c **** *  signals when the kill signal is present.  This mode should only be used
 465:.\Generated_Source\PSoC4/PWM.c **** *  when the kill signal (stop input) is configured in the pass through mode
 466:.\Generated_Source\PSoC4/PWM.c **** *  (Level sensitive signal).
 467:.\Generated_Source\PSoC4/PWM.c **** 
 468:.\Generated_Source\PSoC4/PWM.c **** *
 469:.\Generated_Source\PSoC4/PWM.c **** * Parameters:
 470:.\Generated_Source\PSoC4/PWM.c **** *  syncKillEnable
 471:.\Generated_Source\PSoC4/PWM.c **** *   Values:
 472:.\Generated_Source\PSoC4/PWM.c **** *     - 0 - Asynchronous
 473:.\Generated_Source\PSoC4/PWM.c **** *     - 1 - Synchronous
 474:.\Generated_Source\PSoC4/PWM.c **** *
ARM GAS  C:\Users\sunyi\AppData\Local\Temp\ccaHIROV.s 			page 14


 475:.\Generated_Source\PSoC4/PWM.c **** * Return:
 476:.\Generated_Source\PSoC4/PWM.c **** *  None
 477:.\Generated_Source\PSoC4/PWM.c **** *
 478:.\Generated_Source\PSoC4/PWM.c **** *******************************************************************************/
 479:.\Generated_Source\PSoC4/PWM.c **** void PWM_SetPWMSyncKill(uint32 syncKillEnable)
 480:.\Generated_Source\PSoC4/PWM.c **** {
 268              		.loc 1 480 0
 269              		.cfi_startproc
 270              	.LVL20:
 271 0000 10B5     		push	{r4, lr}
 272              		.cfi_def_cfa_offset 8
 273              		.cfi_offset 4, -8
 274              		.cfi_offset 14, -4
 275 0002 041C     		mov	r4, r0
 481:.\Generated_Source\PSoC4/PWM.c ****     uint8 enableInterrupts;
 482:.\Generated_Source\PSoC4/PWM.c **** 
 483:.\Generated_Source\PSoC4/PWM.c ****     enableInterrupts = CyEnterCriticalSection();
 276              		.loc 1 483 0
 277 0004 FFF7FEFF 		bl	CyEnterCriticalSection
 278              	.LVL21:
 484:.\Generated_Source\PSoC4/PWM.c **** 
 485:.\Generated_Source\PSoC4/PWM.c ****     PWM_CONTROL_REG &= (uint32)~PWM_PWM_SYNC_KILL_MASK;
 279              		.loc 1 485 0
 280 0008 064B     		ldr	r3, .L20
 281 000a 1A68     		ldr	r2, [r3]
 282 000c 0421     		mov	r1, #4
 283 000e 8A43     		bic	r2, r1
 284 0010 1A60     		str	r2, [r3]
 486:.\Generated_Source\PSoC4/PWM.c ****     PWM_CONTROL_REG |= ((uint32)((syncKillEnable & PWM_1BIT_MASK)  <<
 285              		.loc 1 486 0
 286 0012 1A68     		ldr	r2, [r3]
 287 0014 0339     		sub	r1, r1, #3
 288 0016 0C40     		and	r4, r1
 289              	.LVL22:
 290 0018 A400     		lsl	r4, r4, #2
 291 001a 1443     		orr	r4, r2
 292 001c 1C60     		str	r4, [r3]
 487:.\Generated_Source\PSoC4/PWM.c ****                                                PWM_PWM_SYNC_KILL_SHIFT));
 488:.\Generated_Source\PSoC4/PWM.c **** 
 489:.\Generated_Source\PSoC4/PWM.c ****     CyExitCriticalSection(enableInterrupts);
 293              		.loc 1 489 0
 294 001e FFF7FEFF 		bl	CyExitCriticalSection
 295              	.LVL23:
 490:.\Generated_Source\PSoC4/PWM.c **** }
 296              		.loc 1 490 0
 297              		@ sp needed
 298 0022 10BD     		pop	{r4, pc}
 299              	.L21:
 300              		.align	2
 301              	.L20:
 302 0024 00012040 		.word	1075839232
 303              		.cfi_endproc
 304              	.LFE11:
 305              		.size	PWM_SetPWMSyncKill, .-PWM_SetPWMSyncKill
 306              		.section	.text.PWM_SetPWMStopOnKill,"ax",%progbits
 307              		.align	2
 308              		.global	PWM_SetPWMStopOnKill
ARM GAS  C:\Users\sunyi\AppData\Local\Temp\ccaHIROV.s 			page 15


 309              		.code	16
 310              		.thumb_func
 311              		.type	PWM_SetPWMStopOnKill, %function
 312              	PWM_SetPWMStopOnKill:
 313              	.LFB12:
 491:.\Generated_Source\PSoC4/PWM.c **** 
 492:.\Generated_Source\PSoC4/PWM.c **** 
 493:.\Generated_Source\PSoC4/PWM.c **** /*******************************************************************************
 494:.\Generated_Source\PSoC4/PWM.c **** * Function Name: PWM_SetPWMStopOnKill
 495:.\Generated_Source\PSoC4/PWM.c **** ********************************************************************************
 496:.\Generated_Source\PSoC4/PWM.c **** *
 497:.\Generated_Source\PSoC4/PWM.c **** * Summary:
 498:.\Generated_Source\PSoC4/PWM.c **** *  Writes the register that controls whether the PWM kill signal (stop input)
 499:.\Generated_Source\PSoC4/PWM.c **** *  causes the PWM counter to stop.  By default the kill operation does not stop
 500:.\Generated_Source\PSoC4/PWM.c **** *  the counter.  This functionality is only applicable to the three PWM modes.
 501:.\Generated_Source\PSoC4/PWM.c **** *
 502:.\Generated_Source\PSoC4/PWM.c **** *
 503:.\Generated_Source\PSoC4/PWM.c **** * Parameters:
 504:.\Generated_Source\PSoC4/PWM.c **** *  stopOnKillEnable
 505:.\Generated_Source\PSoC4/PWM.c **** *   Values:
 506:.\Generated_Source\PSoC4/PWM.c **** *     - 0 - Don't stop
 507:.\Generated_Source\PSoC4/PWM.c **** *     - 1 - Stop
 508:.\Generated_Source\PSoC4/PWM.c **** *
 509:.\Generated_Source\PSoC4/PWM.c **** * Return:
 510:.\Generated_Source\PSoC4/PWM.c **** *  None
 511:.\Generated_Source\PSoC4/PWM.c **** *
 512:.\Generated_Source\PSoC4/PWM.c **** *******************************************************************************/
 513:.\Generated_Source\PSoC4/PWM.c **** void PWM_SetPWMStopOnKill(uint32 stopOnKillEnable)
 514:.\Generated_Source\PSoC4/PWM.c **** {
 314              		.loc 1 514 0
 315              		.cfi_startproc
 316              	.LVL24:
 317 0000 10B5     		push	{r4, lr}
 318              		.cfi_def_cfa_offset 8
 319              		.cfi_offset 4, -8
 320              		.cfi_offset 14, -4
 321 0002 041C     		mov	r4, r0
 515:.\Generated_Source\PSoC4/PWM.c ****     uint8 enableInterrupts;
 516:.\Generated_Source\PSoC4/PWM.c **** 
 517:.\Generated_Source\PSoC4/PWM.c ****     enableInterrupts = CyEnterCriticalSection();
 322              		.loc 1 517 0
 323 0004 FFF7FEFF 		bl	CyEnterCriticalSection
 324              	.LVL25:
 518:.\Generated_Source\PSoC4/PWM.c **** 
 519:.\Generated_Source\PSoC4/PWM.c ****     PWM_CONTROL_REG &= (uint32)~PWM_PWM_STOP_KILL_MASK;
 325              		.loc 1 519 0
 326 0008 064B     		ldr	r3, .L23
 327 000a 1A68     		ldr	r2, [r3]
 328 000c 0821     		mov	r1, #8
 329 000e 8A43     		bic	r2, r1
 330 0010 1A60     		str	r2, [r3]
 520:.\Generated_Source\PSoC4/PWM.c ****     PWM_CONTROL_REG |= ((uint32)((stopOnKillEnable & PWM_1BIT_MASK)  <<
 331              		.loc 1 520 0
 332 0012 1A68     		ldr	r2, [r3]
 333 0014 0739     		sub	r1, r1, #7
 334 0016 0C40     		and	r4, r1
 335              	.LVL26:
ARM GAS  C:\Users\sunyi\AppData\Local\Temp\ccaHIROV.s 			page 16


 336 0018 E400     		lsl	r4, r4, #3
 337 001a 1443     		orr	r4, r2
 338 001c 1C60     		str	r4, [r3]
 521:.\Generated_Source\PSoC4/PWM.c ****                                                          PWM_PWM_STOP_KILL_SHIFT));
 522:.\Generated_Source\PSoC4/PWM.c **** 
 523:.\Generated_Source\PSoC4/PWM.c ****     CyExitCriticalSection(enableInterrupts);
 339              		.loc 1 523 0
 340 001e FFF7FEFF 		bl	CyExitCriticalSection
 341              	.LVL27:
 524:.\Generated_Source\PSoC4/PWM.c **** }
 342              		.loc 1 524 0
 343              		@ sp needed
 344 0022 10BD     		pop	{r4, pc}
 345              	.L24:
 346              		.align	2
 347              	.L23:
 348 0024 00012040 		.word	1075839232
 349              		.cfi_endproc
 350              	.LFE12:
 351              		.size	PWM_SetPWMStopOnKill, .-PWM_SetPWMStopOnKill
 352              		.section	.text.PWM_SetPWMDeadTime,"ax",%progbits
 353              		.align	2
 354              		.global	PWM_SetPWMDeadTime
 355              		.code	16
 356              		.thumb_func
 357              		.type	PWM_SetPWMDeadTime, %function
 358              	PWM_SetPWMDeadTime:
 359              	.LFB13:
 525:.\Generated_Source\PSoC4/PWM.c **** 
 526:.\Generated_Source\PSoC4/PWM.c **** 
 527:.\Generated_Source\PSoC4/PWM.c **** /*******************************************************************************
 528:.\Generated_Source\PSoC4/PWM.c **** * Function Name: PWM_SetPWMDeadTime
 529:.\Generated_Source\PSoC4/PWM.c **** ********************************************************************************
 530:.\Generated_Source\PSoC4/PWM.c **** *
 531:.\Generated_Source\PSoC4/PWM.c **** * Summary:
 532:.\Generated_Source\PSoC4/PWM.c **** *  Writes the dead time control value.  This value delays the rising edge of
 533:.\Generated_Source\PSoC4/PWM.c **** *  both the line and line_n signals the designated number of cycles resulting
 534:.\Generated_Source\PSoC4/PWM.c **** *  in both signals being inactive for that many cycles.  This functionality is
 535:.\Generated_Source\PSoC4/PWM.c **** *  only applicable to the PWM in the dead time mode.
 536:.\Generated_Source\PSoC4/PWM.c **** 
 537:.\Generated_Source\PSoC4/PWM.c **** *
 538:.\Generated_Source\PSoC4/PWM.c **** * Parameters:
 539:.\Generated_Source\PSoC4/PWM.c **** *  Dead time to insert
 540:.\Generated_Source\PSoC4/PWM.c **** *   Values: 0 to 255
 541:.\Generated_Source\PSoC4/PWM.c **** *
 542:.\Generated_Source\PSoC4/PWM.c **** * Return:
 543:.\Generated_Source\PSoC4/PWM.c **** *  None
 544:.\Generated_Source\PSoC4/PWM.c **** *
 545:.\Generated_Source\PSoC4/PWM.c **** *******************************************************************************/
 546:.\Generated_Source\PSoC4/PWM.c **** void PWM_SetPWMDeadTime(uint32 deadTime)
 547:.\Generated_Source\PSoC4/PWM.c **** {
 360              		.loc 1 547 0
 361              		.cfi_startproc
 362              	.LVL28:
 363 0000 10B5     		push	{r4, lr}
 364              		.cfi_def_cfa_offset 8
 365              		.cfi_offset 4, -8
ARM GAS  C:\Users\sunyi\AppData\Local\Temp\ccaHIROV.s 			page 17


 366              		.cfi_offset 14, -4
 367 0002 041C     		mov	r4, r0
 548:.\Generated_Source\PSoC4/PWM.c ****     uint8 enableInterrupts;
 549:.\Generated_Source\PSoC4/PWM.c **** 
 550:.\Generated_Source\PSoC4/PWM.c ****     enableInterrupts = CyEnterCriticalSection();
 368              		.loc 1 550 0
 369 0004 FFF7FEFF 		bl	CyEnterCriticalSection
 370              	.LVL29:
 551:.\Generated_Source\PSoC4/PWM.c **** 
 552:.\Generated_Source\PSoC4/PWM.c ****     PWM_CONTROL_REG &= (uint32)~PWM_PRESCALER_MASK;
 371              		.loc 1 552 0
 372 0008 064B     		ldr	r3, .L26
 373 000a 1968     		ldr	r1, [r3]
 374 000c 064A     		ldr	r2, .L26+4
 375 000e 0A40     		and	r2, r1
 376 0010 1A60     		str	r2, [r3]
 553:.\Generated_Source\PSoC4/PWM.c ****     PWM_CONTROL_REG |= ((uint32)((deadTime & PWM_8BIT_MASK) <<
 377              		.loc 1 553 0
 378 0012 1A68     		ldr	r2, [r3]
 379 0014 2406     		lsl	r4, r4, #24
 380              	.LVL30:
 381 0016 240C     		lsr	r4, r4, #16
 382 0018 1443     		orr	r4, r2
 383 001a 1C60     		str	r4, [r3]
 554:.\Generated_Source\PSoC4/PWM.c ****                                                           PWM_PRESCALER_SHIFT));
 555:.\Generated_Source\PSoC4/PWM.c **** 
 556:.\Generated_Source\PSoC4/PWM.c ****     CyExitCriticalSection(enableInterrupts);
 384              		.loc 1 556 0
 385 001c FFF7FEFF 		bl	CyExitCriticalSection
 386              	.LVL31:
 557:.\Generated_Source\PSoC4/PWM.c **** }
 387              		.loc 1 557 0
 388              		@ sp needed
 389 0020 10BD     		pop	{r4, pc}
 390              	.L27:
 391 0022 C046     		.align	2
 392              	.L26:
 393 0024 00012040 		.word	1075839232
 394 0028 FF00FFFF 		.word	-65281
 395              		.cfi_endproc
 396              	.LFE13:
 397              		.size	PWM_SetPWMDeadTime, .-PWM_SetPWMDeadTime
 398              		.section	.text.PWM_SetPWMInvert,"ax",%progbits
 399              		.align	2
 400              		.global	PWM_SetPWMInvert
 401              		.code	16
 402              		.thumb_func
 403              		.type	PWM_SetPWMInvert, %function
 404              	PWM_SetPWMInvert:
 405              	.LFB14:
 558:.\Generated_Source\PSoC4/PWM.c **** 
 559:.\Generated_Source\PSoC4/PWM.c **** 
 560:.\Generated_Source\PSoC4/PWM.c **** /*******************************************************************************
 561:.\Generated_Source\PSoC4/PWM.c **** * Function Name: PWM_SetPWMInvert
 562:.\Generated_Source\PSoC4/PWM.c **** ********************************************************************************
 563:.\Generated_Source\PSoC4/PWM.c **** *
 564:.\Generated_Source\PSoC4/PWM.c **** * Summary:
ARM GAS  C:\Users\sunyi\AppData\Local\Temp\ccaHIROV.s 			page 18


 565:.\Generated_Source\PSoC4/PWM.c **** *  Writes the bits that control whether the line and line_n outputs are
 566:.\Generated_Source\PSoC4/PWM.c **** *  inverted from their normal output values.  This functionality is only
 567:.\Generated_Source\PSoC4/PWM.c **** *  applicable to the three PWM modes.
 568:.\Generated_Source\PSoC4/PWM.c **** *
 569:.\Generated_Source\PSoC4/PWM.c **** * Parameters:
 570:.\Generated_Source\PSoC4/PWM.c **** *  mask: Mask of outputs to invert.
 571:.\Generated_Source\PSoC4/PWM.c **** *   Values:
 572:.\Generated_Source\PSoC4/PWM.c **** *         - PWM_INVERT_LINE   - Inverts the line output
 573:.\Generated_Source\PSoC4/PWM.c **** *         - PWM_INVERT_LINE_N - Inverts the line_n output
 574:.\Generated_Source\PSoC4/PWM.c **** *
 575:.\Generated_Source\PSoC4/PWM.c **** * Return:
 576:.\Generated_Source\PSoC4/PWM.c **** *  None
 577:.\Generated_Source\PSoC4/PWM.c **** *
 578:.\Generated_Source\PSoC4/PWM.c **** *******************************************************************************/
 579:.\Generated_Source\PSoC4/PWM.c **** void PWM_SetPWMInvert(uint32 mask)
 580:.\Generated_Source\PSoC4/PWM.c **** {
 406              		.loc 1 580 0
 407              		.cfi_startproc
 408              	.LVL32:
 409 0000 10B5     		push	{r4, lr}
 410              		.cfi_def_cfa_offset 8
 411              		.cfi_offset 4, -8
 412              		.cfi_offset 14, -4
 413 0002 041C     		mov	r4, r0
 581:.\Generated_Source\PSoC4/PWM.c ****     uint8 enableInterrupts;
 582:.\Generated_Source\PSoC4/PWM.c **** 
 583:.\Generated_Source\PSoC4/PWM.c ****     enableInterrupts = CyEnterCriticalSection();
 414              		.loc 1 583 0
 415 0004 FFF7FEFF 		bl	CyEnterCriticalSection
 416              	.LVL33:
 584:.\Generated_Source\PSoC4/PWM.c **** 
 585:.\Generated_Source\PSoC4/PWM.c ****     PWM_CONTROL_REG &= (uint32)~PWM_INV_OUT_MASK;
 417              		.loc 1 585 0
 418 0008 054B     		ldr	r3, .L29
 419 000a 1968     		ldr	r1, [r3]
 420 000c 054A     		ldr	r2, .L29+4
 421 000e 0A40     		and	r2, r1
 422 0010 1A60     		str	r2, [r3]
 586:.\Generated_Source\PSoC4/PWM.c ****     PWM_CONTROL_REG |= mask;
 423              		.loc 1 586 0
 424 0012 1A68     		ldr	r2, [r3]
 425 0014 1443     		orr	r4, r2
 426              	.LVL34:
 427 0016 1C60     		str	r4, [r3]
 587:.\Generated_Source\PSoC4/PWM.c **** 
 588:.\Generated_Source\PSoC4/PWM.c ****     CyExitCriticalSection(enableInterrupts);
 428              		.loc 1 588 0
 429 0018 FFF7FEFF 		bl	CyExitCriticalSection
 430              	.LVL35:
 589:.\Generated_Source\PSoC4/PWM.c **** }
 431              		.loc 1 589 0
 432              		@ sp needed
 433 001c 10BD     		pop	{r4, pc}
 434              	.L30:
 435 001e C046     		.align	2
 436              	.L29:
 437 0020 00012040 		.word	1075839232
ARM GAS  C:\Users\sunyi\AppData\Local\Temp\ccaHIROV.s 			page 19


 438 0024 FFFFCFFF 		.word	-3145729
 439              		.cfi_endproc
 440              	.LFE14:
 441              		.size	PWM_SetPWMInvert, .-PWM_SetPWMInvert
 442              		.section	.text.PWM_WriteCounter,"ax",%progbits
 443              		.align	2
 444              		.global	PWM_WriteCounter
 445              		.code	16
 446              		.thumb_func
 447              		.type	PWM_WriteCounter, %function
 448              	PWM_WriteCounter:
 449              	.LFB15:
 590:.\Generated_Source\PSoC4/PWM.c **** 
 591:.\Generated_Source\PSoC4/PWM.c **** 
 592:.\Generated_Source\PSoC4/PWM.c **** 
 593:.\Generated_Source\PSoC4/PWM.c **** /*******************************************************************************
 594:.\Generated_Source\PSoC4/PWM.c **** * Function Name: PWM_WriteCounter
 595:.\Generated_Source\PSoC4/PWM.c **** ********************************************************************************
 596:.\Generated_Source\PSoC4/PWM.c **** *
 597:.\Generated_Source\PSoC4/PWM.c **** * Summary:
 598:.\Generated_Source\PSoC4/PWM.c **** *  Writes a new 16bit counter value directly into the counter register, thus
 599:.\Generated_Source\PSoC4/PWM.c **** *  setting the counter (not the period) to the value written. It is not
 600:.\Generated_Source\PSoC4/PWM.c **** *  advised to write to this field when the counter is running.
 601:.\Generated_Source\PSoC4/PWM.c **** *
 602:.\Generated_Source\PSoC4/PWM.c **** * Parameters:
 603:.\Generated_Source\PSoC4/PWM.c **** *  count: value to write
 604:.\Generated_Source\PSoC4/PWM.c **** *
 605:.\Generated_Source\PSoC4/PWM.c **** * Return:
 606:.\Generated_Source\PSoC4/PWM.c **** *  None
 607:.\Generated_Source\PSoC4/PWM.c **** *
 608:.\Generated_Source\PSoC4/PWM.c **** *******************************************************************************/
 609:.\Generated_Source\PSoC4/PWM.c **** void PWM_WriteCounter(uint32 count)
 610:.\Generated_Source\PSoC4/PWM.c **** {
 450              		.loc 1 610 0
 451              		.cfi_startproc
 452              	.LVL36:
 611:.\Generated_Source\PSoC4/PWM.c ****     PWM_COUNTER_REG = (count & PWM_16BIT_MASK);
 453              		.loc 1 611 0
 454 0000 0004     		lsl	r0, r0, #16
 455              	.LVL37:
 456 0002 000C     		lsr	r0, r0, #16
 457 0004 014B     		ldr	r3, .L32
 458 0006 1860     		str	r0, [r3]
 612:.\Generated_Source\PSoC4/PWM.c **** }
 459              		.loc 1 612 0
 460              		@ sp needed
 461 0008 7047     		bx	lr
 462              	.L33:
 463 000a C046     		.align	2
 464              	.L32:
 465 000c 08012040 		.word	1075839240
 466              		.cfi_endproc
 467              	.LFE15:
 468              		.size	PWM_WriteCounter, .-PWM_WriteCounter
 469              		.section	.text.PWM_ReadCounter,"ax",%progbits
 470              		.align	2
 471              		.global	PWM_ReadCounter
ARM GAS  C:\Users\sunyi\AppData\Local\Temp\ccaHIROV.s 			page 20


 472              		.code	16
 473              		.thumb_func
 474              		.type	PWM_ReadCounter, %function
 475              	PWM_ReadCounter:
 476              	.LFB16:
 613:.\Generated_Source\PSoC4/PWM.c **** 
 614:.\Generated_Source\PSoC4/PWM.c **** 
 615:.\Generated_Source\PSoC4/PWM.c **** /*******************************************************************************
 616:.\Generated_Source\PSoC4/PWM.c **** * Function Name: PWM_ReadCounter
 617:.\Generated_Source\PSoC4/PWM.c **** ********************************************************************************
 618:.\Generated_Source\PSoC4/PWM.c **** *
 619:.\Generated_Source\PSoC4/PWM.c **** * Summary:
 620:.\Generated_Source\PSoC4/PWM.c **** *  Reads the current counter value.
 621:.\Generated_Source\PSoC4/PWM.c **** *
 622:.\Generated_Source\PSoC4/PWM.c **** * Parameters:
 623:.\Generated_Source\PSoC4/PWM.c **** *  None
 624:.\Generated_Source\PSoC4/PWM.c **** *
 625:.\Generated_Source\PSoC4/PWM.c **** * Return:
 626:.\Generated_Source\PSoC4/PWM.c **** *  Current counter value
 627:.\Generated_Source\PSoC4/PWM.c **** *
 628:.\Generated_Source\PSoC4/PWM.c **** *******************************************************************************/
 629:.\Generated_Source\PSoC4/PWM.c **** uint32 PWM_ReadCounter(void)
 630:.\Generated_Source\PSoC4/PWM.c **** {
 477              		.loc 1 630 0
 478              		.cfi_startproc
 631:.\Generated_Source\PSoC4/PWM.c ****     return (PWM_COUNTER_REG & PWM_16BIT_MASK);
 479              		.loc 1 631 0
 480 0000 024B     		ldr	r3, .L35
 481 0002 1868     		ldr	r0, [r3]
 482 0004 0004     		lsl	r0, r0, #16
 483 0006 000C     		lsr	r0, r0, #16
 632:.\Generated_Source\PSoC4/PWM.c **** }
 484              		.loc 1 632 0
 485              		@ sp needed
 486 0008 7047     		bx	lr
 487              	.L36:
 488 000a C046     		.align	2
 489              	.L35:
 490 000c 08012040 		.word	1075839240
 491              		.cfi_endproc
 492              	.LFE16:
 493              		.size	PWM_ReadCounter, .-PWM_ReadCounter
 494              		.section	.text.PWM_SetCounterMode,"ax",%progbits
 495              		.align	2
 496              		.global	PWM_SetCounterMode
 497              		.code	16
 498              		.thumb_func
 499              		.type	PWM_SetCounterMode, %function
 500              	PWM_SetCounterMode:
 501              	.LFB17:
 633:.\Generated_Source\PSoC4/PWM.c **** 
 634:.\Generated_Source\PSoC4/PWM.c **** 
 635:.\Generated_Source\PSoC4/PWM.c **** /*******************************************************************************
 636:.\Generated_Source\PSoC4/PWM.c **** * Function Name: PWM_SetCounterMode
 637:.\Generated_Source\PSoC4/PWM.c **** ********************************************************************************
 638:.\Generated_Source\PSoC4/PWM.c **** *
 639:.\Generated_Source\PSoC4/PWM.c **** * Summary:
ARM GAS  C:\Users\sunyi\AppData\Local\Temp\ccaHIROV.s 			page 21


 640:.\Generated_Source\PSoC4/PWM.c **** *  Sets the counter mode.  Applicable to all modes except Quadrature Decoder
 641:.\Generated_Source\PSoC4/PWM.c **** *  and the PWM with a pseudo random output.
 642:.\Generated_Source\PSoC4/PWM.c **** *
 643:.\Generated_Source\PSoC4/PWM.c **** * Parameters:
 644:.\Generated_Source\PSoC4/PWM.c **** *  counterMode: Enumerated counter type values
 645:.\Generated_Source\PSoC4/PWM.c **** *   Values:
 646:.\Generated_Source\PSoC4/PWM.c **** *     - PWM_COUNT_UP       - Counts up
 647:.\Generated_Source\PSoC4/PWM.c **** *     - PWM_COUNT_DOWN     - Counts down
 648:.\Generated_Source\PSoC4/PWM.c **** *     - PWM_COUNT_UPDOWN0  - Counts up and down. Terminal count
 649:.\Generated_Source\PSoC4/PWM.c **** *                                         generated when counter reaches 0
 650:.\Generated_Source\PSoC4/PWM.c **** *     - PWM_COUNT_UPDOWN1  - Counts up and down. Terminal count
 651:.\Generated_Source\PSoC4/PWM.c **** *                                         generated both when counter reaches 0
 652:.\Generated_Source\PSoC4/PWM.c **** *                                         and period
 653:.\Generated_Source\PSoC4/PWM.c **** *
 654:.\Generated_Source\PSoC4/PWM.c **** * Return:
 655:.\Generated_Source\PSoC4/PWM.c **** *  None
 656:.\Generated_Source\PSoC4/PWM.c **** *
 657:.\Generated_Source\PSoC4/PWM.c **** *******************************************************************************/
 658:.\Generated_Source\PSoC4/PWM.c **** void PWM_SetCounterMode(uint32 counterMode)
 659:.\Generated_Source\PSoC4/PWM.c **** {
 502              		.loc 1 659 0
 503              		.cfi_startproc
 504              	.LVL38:
 505 0000 10B5     		push	{r4, lr}
 506              		.cfi_def_cfa_offset 8
 507              		.cfi_offset 4, -8
 508              		.cfi_offset 14, -4
 509 0002 041C     		mov	r4, r0
 660:.\Generated_Source\PSoC4/PWM.c ****     uint8 enableInterrupts;
 661:.\Generated_Source\PSoC4/PWM.c **** 
 662:.\Generated_Source\PSoC4/PWM.c ****     enableInterrupts = CyEnterCriticalSection();
 510              		.loc 1 662 0
 511 0004 FFF7FEFF 		bl	CyEnterCriticalSection
 512              	.LVL39:
 663:.\Generated_Source\PSoC4/PWM.c **** 
 664:.\Generated_Source\PSoC4/PWM.c ****     PWM_CONTROL_REG &= (uint32)~PWM_UPDOWN_MASK;
 513              		.loc 1 664 0
 514 0008 054B     		ldr	r3, .L38
 515 000a 1968     		ldr	r1, [r3]
 516 000c 054A     		ldr	r2, .L38+4
 517 000e 0A40     		and	r2, r1
 518 0010 1A60     		str	r2, [r3]
 665:.\Generated_Source\PSoC4/PWM.c ****     PWM_CONTROL_REG |= counterMode;
 519              		.loc 1 665 0
 520 0012 1A68     		ldr	r2, [r3]
 521 0014 1443     		orr	r4, r2
 522              	.LVL40:
 523 0016 1C60     		str	r4, [r3]
 666:.\Generated_Source\PSoC4/PWM.c **** 
 667:.\Generated_Source\PSoC4/PWM.c ****     CyExitCriticalSection(enableInterrupts);
 524              		.loc 1 667 0
 525 0018 FFF7FEFF 		bl	CyExitCriticalSection
 526              	.LVL41:
 668:.\Generated_Source\PSoC4/PWM.c **** }
 527              		.loc 1 668 0
 528              		@ sp needed
 529 001c 10BD     		pop	{r4, pc}
ARM GAS  C:\Users\sunyi\AppData\Local\Temp\ccaHIROV.s 			page 22


 530              	.L39:
 531 001e C046     		.align	2
 532              	.L38:
 533 0020 00012040 		.word	1075839232
 534 0024 FFFFFCFF 		.word	-196609
 535              		.cfi_endproc
 536              	.LFE17:
 537              		.size	PWM_SetCounterMode, .-PWM_SetCounterMode
 538              		.section	.text.PWM_WritePeriod,"ax",%progbits
 539              		.align	2
 540              		.global	PWM_WritePeriod
 541              		.code	16
 542              		.thumb_func
 543              		.type	PWM_WritePeriod, %function
 544              	PWM_WritePeriod:
 545              	.LFB18:
 669:.\Generated_Source\PSoC4/PWM.c **** 
 670:.\Generated_Source\PSoC4/PWM.c **** 
 671:.\Generated_Source\PSoC4/PWM.c **** /*******************************************************************************
 672:.\Generated_Source\PSoC4/PWM.c **** * Function Name: PWM_WritePeriod
 673:.\Generated_Source\PSoC4/PWM.c **** ********************************************************************************
 674:.\Generated_Source\PSoC4/PWM.c **** *
 675:.\Generated_Source\PSoC4/PWM.c **** * Summary:
 676:.\Generated_Source\PSoC4/PWM.c **** *  Writes the 16 bit period register with the new period value.
 677:.\Generated_Source\PSoC4/PWM.c **** *  To cause the counter to count for N cycles this register should be written
 678:.\Generated_Source\PSoC4/PWM.c **** *  with N-1 (counts from 0 to period inclusive).
 679:.\Generated_Source\PSoC4/PWM.c **** *
 680:.\Generated_Source\PSoC4/PWM.c **** * Parameters:
 681:.\Generated_Source\PSoC4/PWM.c **** *  period: Period value
 682:.\Generated_Source\PSoC4/PWM.c **** *
 683:.\Generated_Source\PSoC4/PWM.c **** * Return:
 684:.\Generated_Source\PSoC4/PWM.c **** *  None
 685:.\Generated_Source\PSoC4/PWM.c **** *
 686:.\Generated_Source\PSoC4/PWM.c **** *******************************************************************************/
 687:.\Generated_Source\PSoC4/PWM.c **** void PWM_WritePeriod(uint32 period)
 688:.\Generated_Source\PSoC4/PWM.c **** {
 546              		.loc 1 688 0
 547              		.cfi_startproc
 548              	.LVL42:
 689:.\Generated_Source\PSoC4/PWM.c ****     PWM_PERIOD_REG = (period & PWM_16BIT_MASK);
 549              		.loc 1 689 0
 550 0000 0004     		lsl	r0, r0, #16
 551              	.LVL43:
 552 0002 000C     		lsr	r0, r0, #16
 553 0004 014B     		ldr	r3, .L41
 554 0006 1860     		str	r0, [r3]
 690:.\Generated_Source\PSoC4/PWM.c **** }
 555              		.loc 1 690 0
 556              		@ sp needed
 557 0008 7047     		bx	lr
 558              	.L42:
 559 000a C046     		.align	2
 560              	.L41:
 561 000c 14012040 		.word	1075839252
 562              		.cfi_endproc
 563              	.LFE18:
 564              		.size	PWM_WritePeriod, .-PWM_WritePeriod
ARM GAS  C:\Users\sunyi\AppData\Local\Temp\ccaHIROV.s 			page 23


 565              		.section	.text.PWM_ReadPeriod,"ax",%progbits
 566              		.align	2
 567              		.global	PWM_ReadPeriod
 568              		.code	16
 569              		.thumb_func
 570              		.type	PWM_ReadPeriod, %function
 571              	PWM_ReadPeriod:
 572              	.LFB19:
 691:.\Generated_Source\PSoC4/PWM.c **** 
 692:.\Generated_Source\PSoC4/PWM.c **** 
 693:.\Generated_Source\PSoC4/PWM.c **** /*******************************************************************************
 694:.\Generated_Source\PSoC4/PWM.c **** * Function Name: PWM_ReadPeriod
 695:.\Generated_Source\PSoC4/PWM.c **** ********************************************************************************
 696:.\Generated_Source\PSoC4/PWM.c **** *
 697:.\Generated_Source\PSoC4/PWM.c **** * Summary:
 698:.\Generated_Source\PSoC4/PWM.c **** *  Reads the 16 bit period register.
 699:.\Generated_Source\PSoC4/PWM.c **** *
 700:.\Generated_Source\PSoC4/PWM.c **** * Parameters:
 701:.\Generated_Source\PSoC4/PWM.c **** *  None
 702:.\Generated_Source\PSoC4/PWM.c **** *
 703:.\Generated_Source\PSoC4/PWM.c **** * Return:
 704:.\Generated_Source\PSoC4/PWM.c **** *  Period value
 705:.\Generated_Source\PSoC4/PWM.c **** *
 706:.\Generated_Source\PSoC4/PWM.c **** *******************************************************************************/
 707:.\Generated_Source\PSoC4/PWM.c **** uint32 PWM_ReadPeriod(void)
 708:.\Generated_Source\PSoC4/PWM.c **** {
 573              		.loc 1 708 0
 574              		.cfi_startproc
 709:.\Generated_Source\PSoC4/PWM.c ****     return (PWM_PERIOD_REG & PWM_16BIT_MASK);
 575              		.loc 1 709 0
 576 0000 024B     		ldr	r3, .L44
 577 0002 1868     		ldr	r0, [r3]
 578 0004 0004     		lsl	r0, r0, #16
 579 0006 000C     		lsr	r0, r0, #16
 710:.\Generated_Source\PSoC4/PWM.c **** }
 580              		.loc 1 710 0
 581              		@ sp needed
 582 0008 7047     		bx	lr
 583              	.L45:
 584 000a C046     		.align	2
 585              	.L44:
 586 000c 14012040 		.word	1075839252
 587              		.cfi_endproc
 588              	.LFE19:
 589              		.size	PWM_ReadPeriod, .-PWM_ReadPeriod
 590              		.section	.text.PWM_SetCompareSwap,"ax",%progbits
 591              		.align	2
 592              		.global	PWM_SetCompareSwap
 593              		.code	16
 594              		.thumb_func
 595              		.type	PWM_SetCompareSwap, %function
 596              	PWM_SetCompareSwap:
 597              	.LFB20:
 711:.\Generated_Source\PSoC4/PWM.c **** 
 712:.\Generated_Source\PSoC4/PWM.c **** 
 713:.\Generated_Source\PSoC4/PWM.c **** /*******************************************************************************
 714:.\Generated_Source\PSoC4/PWM.c **** * Function Name: PWM_SetCompareSwap
ARM GAS  C:\Users\sunyi\AppData\Local\Temp\ccaHIROV.s 			page 24


 715:.\Generated_Source\PSoC4/PWM.c **** ********************************************************************************
 716:.\Generated_Source\PSoC4/PWM.c **** *
 717:.\Generated_Source\PSoC4/PWM.c **** * Summary:
 718:.\Generated_Source\PSoC4/PWM.c **** *  Writes the register that controls whether the compare registers are
 719:.\Generated_Source\PSoC4/PWM.c **** *  swapped. When enabled in the Timer/Counter mode(without capture) the swap
 720:.\Generated_Source\PSoC4/PWM.c **** *  occurs at a TC event. In the PWM mode the swap occurs at the next TC event
 721:.\Generated_Source\PSoC4/PWM.c **** *  following a hardware switch event.
 722:.\Generated_Source\PSoC4/PWM.c **** *
 723:.\Generated_Source\PSoC4/PWM.c **** * Parameters:
 724:.\Generated_Source\PSoC4/PWM.c **** *  swapEnable
 725:.\Generated_Source\PSoC4/PWM.c **** *   Values:
 726:.\Generated_Source\PSoC4/PWM.c **** *     - 0 - Disable swap
 727:.\Generated_Source\PSoC4/PWM.c **** *     - 1 - Enable swap
 728:.\Generated_Source\PSoC4/PWM.c **** *
 729:.\Generated_Source\PSoC4/PWM.c **** * Return:
 730:.\Generated_Source\PSoC4/PWM.c **** *  None
 731:.\Generated_Source\PSoC4/PWM.c **** *
 732:.\Generated_Source\PSoC4/PWM.c **** *******************************************************************************/
 733:.\Generated_Source\PSoC4/PWM.c **** void PWM_SetCompareSwap(uint32 swapEnable)
 734:.\Generated_Source\PSoC4/PWM.c **** {
 598              		.loc 1 734 0
 599              		.cfi_startproc
 600              	.LVL44:
 601 0000 10B5     		push	{r4, lr}
 602              		.cfi_def_cfa_offset 8
 603              		.cfi_offset 4, -8
 604              		.cfi_offset 14, -4
 605 0002 041C     		mov	r4, r0
 735:.\Generated_Source\PSoC4/PWM.c ****     uint8 enableInterrupts;
 736:.\Generated_Source\PSoC4/PWM.c **** 
 737:.\Generated_Source\PSoC4/PWM.c ****     enableInterrupts = CyEnterCriticalSection();
 606              		.loc 1 737 0
 607 0004 FFF7FEFF 		bl	CyEnterCriticalSection
 608              	.LVL45:
 738:.\Generated_Source\PSoC4/PWM.c **** 
 739:.\Generated_Source\PSoC4/PWM.c ****     PWM_CONTROL_REG &= (uint32)~PWM_RELOAD_CC_MASK;
 609              		.loc 1 739 0
 610 0008 054B     		ldr	r3, .L47
 611 000a 1A68     		ldr	r2, [r3]
 612 000c 0121     		mov	r1, #1
 613 000e 8A43     		bic	r2, r1
 614 0010 1A60     		str	r2, [r3]
 740:.\Generated_Source\PSoC4/PWM.c ****     PWM_CONTROL_REG |= (swapEnable & PWM_1BIT_MASK);
 615              		.loc 1 740 0
 616 0012 1A68     		ldr	r2, [r3]
 617 0014 0C40     		and	r4, r1
 618              	.LVL46:
 619 0016 1443     		orr	r4, r2
 620 0018 1C60     		str	r4, [r3]
 741:.\Generated_Source\PSoC4/PWM.c **** 
 742:.\Generated_Source\PSoC4/PWM.c ****     CyExitCriticalSection(enableInterrupts);
 621              		.loc 1 742 0
 622 001a FFF7FEFF 		bl	CyExitCriticalSection
 623              	.LVL47:
 743:.\Generated_Source\PSoC4/PWM.c **** }
 624              		.loc 1 743 0
 625              		@ sp needed
ARM GAS  C:\Users\sunyi\AppData\Local\Temp\ccaHIROV.s 			page 25


 626 001e 10BD     		pop	{r4, pc}
 627              	.L48:
 628              		.align	2
 629              	.L47:
 630 0020 00012040 		.word	1075839232
 631              		.cfi_endproc
 632              	.LFE20:
 633              		.size	PWM_SetCompareSwap, .-PWM_SetCompareSwap
 634              		.section	.text.PWM_WritePeriodBuf,"ax",%progbits
 635              		.align	2
 636              		.global	PWM_WritePeriodBuf
 637              		.code	16
 638              		.thumb_func
 639              		.type	PWM_WritePeriodBuf, %function
 640              	PWM_WritePeriodBuf:
 641              	.LFB21:
 744:.\Generated_Source\PSoC4/PWM.c **** 
 745:.\Generated_Source\PSoC4/PWM.c **** 
 746:.\Generated_Source\PSoC4/PWM.c **** /*******************************************************************************
 747:.\Generated_Source\PSoC4/PWM.c **** * Function Name: PWM_WritePeriodBuf
 748:.\Generated_Source\PSoC4/PWM.c **** ********************************************************************************
 749:.\Generated_Source\PSoC4/PWM.c **** *
 750:.\Generated_Source\PSoC4/PWM.c **** * Summary:
 751:.\Generated_Source\PSoC4/PWM.c **** *  Writes the 16 bit period buf register with the new period value.
 752:.\Generated_Source\PSoC4/PWM.c **** *
 753:.\Generated_Source\PSoC4/PWM.c **** * Parameters:
 754:.\Generated_Source\PSoC4/PWM.c **** *  periodBuf: Period value
 755:.\Generated_Source\PSoC4/PWM.c **** *
 756:.\Generated_Source\PSoC4/PWM.c **** * Return:
 757:.\Generated_Source\PSoC4/PWM.c **** *  None
 758:.\Generated_Source\PSoC4/PWM.c **** *
 759:.\Generated_Source\PSoC4/PWM.c **** *******************************************************************************/
 760:.\Generated_Source\PSoC4/PWM.c **** void PWM_WritePeriodBuf(uint32 periodBuf)
 761:.\Generated_Source\PSoC4/PWM.c **** {
 642              		.loc 1 761 0
 643              		.cfi_startproc
 644              	.LVL48:
 762:.\Generated_Source\PSoC4/PWM.c ****     PWM_PERIOD_BUF_REG = (periodBuf & PWM_16BIT_MASK);
 645              		.loc 1 762 0
 646 0000 0004     		lsl	r0, r0, #16
 647              	.LVL49:
 648 0002 000C     		lsr	r0, r0, #16
 649 0004 014B     		ldr	r3, .L50
 650 0006 1860     		str	r0, [r3]
 763:.\Generated_Source\PSoC4/PWM.c **** }
 651              		.loc 1 763 0
 652              		@ sp needed
 653 0008 7047     		bx	lr
 654              	.L51:
 655 000a C046     		.align	2
 656              	.L50:
 657 000c 18012040 		.word	1075839256
 658              		.cfi_endproc
 659              	.LFE21:
 660              		.size	PWM_WritePeriodBuf, .-PWM_WritePeriodBuf
 661              		.section	.text.PWM_ReadPeriodBuf,"ax",%progbits
 662              		.align	2
ARM GAS  C:\Users\sunyi\AppData\Local\Temp\ccaHIROV.s 			page 26


 663              		.global	PWM_ReadPeriodBuf
 664              		.code	16
 665              		.thumb_func
 666              		.type	PWM_ReadPeriodBuf, %function
 667              	PWM_ReadPeriodBuf:
 668              	.LFB22:
 764:.\Generated_Source\PSoC4/PWM.c **** 
 765:.\Generated_Source\PSoC4/PWM.c **** 
 766:.\Generated_Source\PSoC4/PWM.c **** /*******************************************************************************
 767:.\Generated_Source\PSoC4/PWM.c **** * Function Name: PWM_ReadPeriodBuf
 768:.\Generated_Source\PSoC4/PWM.c **** ********************************************************************************
 769:.\Generated_Source\PSoC4/PWM.c **** *
 770:.\Generated_Source\PSoC4/PWM.c **** * Summary:
 771:.\Generated_Source\PSoC4/PWM.c **** *  Reads the 16 bit period buf register.
 772:.\Generated_Source\PSoC4/PWM.c **** *
 773:.\Generated_Source\PSoC4/PWM.c **** * Parameters:
 774:.\Generated_Source\PSoC4/PWM.c **** *  None
 775:.\Generated_Source\PSoC4/PWM.c **** *
 776:.\Generated_Source\PSoC4/PWM.c **** * Return:
 777:.\Generated_Source\PSoC4/PWM.c **** *  Period value
 778:.\Generated_Source\PSoC4/PWM.c **** *
 779:.\Generated_Source\PSoC4/PWM.c **** *******************************************************************************/
 780:.\Generated_Source\PSoC4/PWM.c **** uint32 PWM_ReadPeriodBuf(void)
 781:.\Generated_Source\PSoC4/PWM.c **** {
 669              		.loc 1 781 0
 670              		.cfi_startproc
 782:.\Generated_Source\PSoC4/PWM.c ****     return (PWM_PERIOD_BUF_REG & PWM_16BIT_MASK);
 671              		.loc 1 782 0
 672 0000 024B     		ldr	r3, .L53
 673 0002 1868     		ldr	r0, [r3]
 674 0004 0004     		lsl	r0, r0, #16
 675 0006 000C     		lsr	r0, r0, #16
 783:.\Generated_Source\PSoC4/PWM.c **** }
 676              		.loc 1 783 0
 677              		@ sp needed
 678 0008 7047     		bx	lr
 679              	.L54:
 680 000a C046     		.align	2
 681              	.L53:
 682 000c 18012040 		.word	1075839256
 683              		.cfi_endproc
 684              	.LFE22:
 685              		.size	PWM_ReadPeriodBuf, .-PWM_ReadPeriodBuf
 686              		.section	.text.PWM_SetPeriodSwap,"ax",%progbits
 687              		.align	2
 688              		.global	PWM_SetPeriodSwap
 689              		.code	16
 690              		.thumb_func
 691              		.type	PWM_SetPeriodSwap, %function
 692              	PWM_SetPeriodSwap:
 693              	.LFB23:
 784:.\Generated_Source\PSoC4/PWM.c **** 
 785:.\Generated_Source\PSoC4/PWM.c **** 
 786:.\Generated_Source\PSoC4/PWM.c **** /*******************************************************************************
 787:.\Generated_Source\PSoC4/PWM.c **** * Function Name: PWM_SetPeriodSwap
 788:.\Generated_Source\PSoC4/PWM.c **** ********************************************************************************
 789:.\Generated_Source\PSoC4/PWM.c **** *
ARM GAS  C:\Users\sunyi\AppData\Local\Temp\ccaHIROV.s 			page 27


 790:.\Generated_Source\PSoC4/PWM.c **** * Summary:
 791:.\Generated_Source\PSoC4/PWM.c **** *  Writes the register that controls whether the period registers are
 792:.\Generated_Source\PSoC4/PWM.c **** *  swapped. When enabled in Timer/Counter mode the swap occurs at a TC event.
 793:.\Generated_Source\PSoC4/PWM.c **** *  In the PWM mode the swap occurs at the next TC event following a hardware
 794:.\Generated_Source\PSoC4/PWM.c **** *  switch event.
 795:.\Generated_Source\PSoC4/PWM.c **** *
 796:.\Generated_Source\PSoC4/PWM.c **** * Parameters:
 797:.\Generated_Source\PSoC4/PWM.c **** *  swapEnable
 798:.\Generated_Source\PSoC4/PWM.c **** *   Values:
 799:.\Generated_Source\PSoC4/PWM.c **** *     - 0 - Disable swap
 800:.\Generated_Source\PSoC4/PWM.c **** *     - 1 - Enable swap
 801:.\Generated_Source\PSoC4/PWM.c **** *
 802:.\Generated_Source\PSoC4/PWM.c **** * Return:
 803:.\Generated_Source\PSoC4/PWM.c **** *  None
 804:.\Generated_Source\PSoC4/PWM.c **** *
 805:.\Generated_Source\PSoC4/PWM.c **** *******************************************************************************/
 806:.\Generated_Source\PSoC4/PWM.c **** void PWM_SetPeriodSwap(uint32 swapEnable)
 807:.\Generated_Source\PSoC4/PWM.c **** {
 694              		.loc 1 807 0
 695              		.cfi_startproc
 696              	.LVL50:
 697 0000 10B5     		push	{r4, lr}
 698              		.cfi_def_cfa_offset 8
 699              		.cfi_offset 4, -8
 700              		.cfi_offset 14, -4
 701 0002 041C     		mov	r4, r0
 808:.\Generated_Source\PSoC4/PWM.c ****     uint8 enableInterrupts;
 809:.\Generated_Source\PSoC4/PWM.c **** 
 810:.\Generated_Source\PSoC4/PWM.c ****     enableInterrupts = CyEnterCriticalSection();
 702              		.loc 1 810 0
 703 0004 FFF7FEFF 		bl	CyEnterCriticalSection
 704              	.LVL51:
 811:.\Generated_Source\PSoC4/PWM.c **** 
 812:.\Generated_Source\PSoC4/PWM.c ****     PWM_CONTROL_REG &= (uint32)~PWM_RELOAD_PERIOD_MASK;
 705              		.loc 1 812 0
 706 0008 064B     		ldr	r3, .L56
 707 000a 1A68     		ldr	r2, [r3]
 708 000c 0221     		mov	r1, #2
 709 000e 8A43     		bic	r2, r1
 710 0010 1A60     		str	r2, [r3]
 813:.\Generated_Source\PSoC4/PWM.c ****     PWM_CONTROL_REG |= ((uint32)((swapEnable & PWM_1BIT_MASK) <<
 711              		.loc 1 813 0
 712 0012 1A68     		ldr	r2, [r3]
 713 0014 0139     		sub	r1, r1, #1
 714 0016 0C40     		and	r4, r1
 715              	.LVL52:
 716 0018 6400     		lsl	r4, r4, #1
 717 001a 1443     		orr	r4, r2
 718 001c 1C60     		str	r4, [r3]
 814:.\Generated_Source\PSoC4/PWM.c ****                                                             PWM_RELOAD_PERIOD_SHIFT));
 815:.\Generated_Source\PSoC4/PWM.c **** 
 816:.\Generated_Source\PSoC4/PWM.c ****     CyExitCriticalSection(enableInterrupts);
 719              		.loc 1 816 0
 720 001e FFF7FEFF 		bl	CyExitCriticalSection
 721              	.LVL53:
 817:.\Generated_Source\PSoC4/PWM.c **** }
 722              		.loc 1 817 0
ARM GAS  C:\Users\sunyi\AppData\Local\Temp\ccaHIROV.s 			page 28


 723              		@ sp needed
 724 0022 10BD     		pop	{r4, pc}
 725              	.L57:
 726              		.align	2
 727              	.L56:
 728 0024 00012040 		.word	1075839232
 729              		.cfi_endproc
 730              	.LFE23:
 731              		.size	PWM_SetPeriodSwap, .-PWM_SetPeriodSwap
 732              		.section	.text.PWM_WriteCompare,"ax",%progbits
 733              		.align	2
 734              		.global	PWM_WriteCompare
 735              		.code	16
 736              		.thumb_func
 737              		.type	PWM_WriteCompare, %function
 738              	PWM_WriteCompare:
 739              	.LFB24:
 818:.\Generated_Source\PSoC4/PWM.c **** 
 819:.\Generated_Source\PSoC4/PWM.c **** 
 820:.\Generated_Source\PSoC4/PWM.c **** /*******************************************************************************
 821:.\Generated_Source\PSoC4/PWM.c **** * Function Name: PWM_WriteCompare
 822:.\Generated_Source\PSoC4/PWM.c **** ********************************************************************************
 823:.\Generated_Source\PSoC4/PWM.c **** *
 824:.\Generated_Source\PSoC4/PWM.c **** * Summary:
 825:.\Generated_Source\PSoC4/PWM.c **** *  Writes the 16 bit compare register with the new compare value. Not
 826:.\Generated_Source\PSoC4/PWM.c **** *  applicable for Timer/Counter with Capture or in Quadrature Decoder modes.
 827:.\Generated_Source\PSoC4/PWM.c **** *
 828:.\Generated_Source\PSoC4/PWM.c **** * Parameters:
 829:.\Generated_Source\PSoC4/PWM.c **** *  compare: Compare value
 830:.\Generated_Source\PSoC4/PWM.c **** *
 831:.\Generated_Source\PSoC4/PWM.c **** * Return:
 832:.\Generated_Source\PSoC4/PWM.c **** *  None
 833:.\Generated_Source\PSoC4/PWM.c **** *
 834:.\Generated_Source\PSoC4/PWM.c **** *******************************************************************************/
 835:.\Generated_Source\PSoC4/PWM.c **** void PWM_WriteCompare(uint32 compare)
 836:.\Generated_Source\PSoC4/PWM.c **** {
 740              		.loc 1 836 0
 741              		.cfi_startproc
 742              	.LVL54:
 837:.\Generated_Source\PSoC4/PWM.c ****     #if (PWM_CY_TCPWM_4000)
 838:.\Generated_Source\PSoC4/PWM.c ****         uint32 currentMode;
 839:.\Generated_Source\PSoC4/PWM.c ****     #endif /* (PWM_CY_TCPWM_4000) */
 840:.\Generated_Source\PSoC4/PWM.c **** 
 841:.\Generated_Source\PSoC4/PWM.c ****     #if (PWM_CY_TCPWM_4000)
 842:.\Generated_Source\PSoC4/PWM.c ****         currentMode = ((PWM_CONTROL_REG & PWM_UPDOWN_MASK) >> PWM_UPDOWN_SHIFT);
 843:.\Generated_Source\PSoC4/PWM.c **** 
 844:.\Generated_Source\PSoC4/PWM.c ****         if (((uint32)PWM__COUNT_DOWN == currentMode) && (0xFFFFu != compare))
 845:.\Generated_Source\PSoC4/PWM.c ****         {
 846:.\Generated_Source\PSoC4/PWM.c ****             compare++;
 847:.\Generated_Source\PSoC4/PWM.c ****         }
 848:.\Generated_Source\PSoC4/PWM.c ****         else if (((uint32)PWM__COUNT_UP == currentMode) && (0u != compare))
 849:.\Generated_Source\PSoC4/PWM.c ****         {
 850:.\Generated_Source\PSoC4/PWM.c ****             compare--;
 851:.\Generated_Source\PSoC4/PWM.c ****         }
 852:.\Generated_Source\PSoC4/PWM.c ****         else
 853:.\Generated_Source\PSoC4/PWM.c ****         {
 854:.\Generated_Source\PSoC4/PWM.c ****         }
ARM GAS  C:\Users\sunyi\AppData\Local\Temp\ccaHIROV.s 			page 29


 855:.\Generated_Source\PSoC4/PWM.c ****         
 856:.\Generated_Source\PSoC4/PWM.c ****     
 857:.\Generated_Source\PSoC4/PWM.c ****     #endif /* (PWM_CY_TCPWM_4000) */
 858:.\Generated_Source\PSoC4/PWM.c ****     
 859:.\Generated_Source\PSoC4/PWM.c ****     PWM_COMP_CAP_REG = (compare & PWM_16BIT_MASK);
 743              		.loc 1 859 0
 744 0000 0004     		lsl	r0, r0, #16
 745              	.LVL55:
 746 0002 000C     		lsr	r0, r0, #16
 747 0004 014B     		ldr	r3, .L59
 748 0006 1860     		str	r0, [r3]
 860:.\Generated_Source\PSoC4/PWM.c **** }
 749              		.loc 1 860 0
 750              		@ sp needed
 751 0008 7047     		bx	lr
 752              	.L60:
 753 000a C046     		.align	2
 754              	.L59:
 755 000c 0C012040 		.word	1075839244
 756              		.cfi_endproc
 757              	.LFE24:
 758              		.size	PWM_WriteCompare, .-PWM_WriteCompare
 759              		.section	.text.PWM_ReadCompare,"ax",%progbits
 760              		.align	2
 761              		.global	PWM_ReadCompare
 762              		.code	16
 763              		.thumb_func
 764              		.type	PWM_ReadCompare, %function
 765              	PWM_ReadCompare:
 766              	.LFB25:
 861:.\Generated_Source\PSoC4/PWM.c **** 
 862:.\Generated_Source\PSoC4/PWM.c **** 
 863:.\Generated_Source\PSoC4/PWM.c **** /*******************************************************************************
 864:.\Generated_Source\PSoC4/PWM.c **** * Function Name: PWM_ReadCompare
 865:.\Generated_Source\PSoC4/PWM.c **** ********************************************************************************
 866:.\Generated_Source\PSoC4/PWM.c **** *
 867:.\Generated_Source\PSoC4/PWM.c **** * Summary:
 868:.\Generated_Source\PSoC4/PWM.c **** *  Reads the compare register. Not applicable for Timer/Counter with Capture
 869:.\Generated_Source\PSoC4/PWM.c **** *  or in Quadrature Decoder modes.
 870:.\Generated_Source\PSoC4/PWM.c **** *
 871:.\Generated_Source\PSoC4/PWM.c **** * Parameters:
 872:.\Generated_Source\PSoC4/PWM.c **** *  None
 873:.\Generated_Source\PSoC4/PWM.c **** *
 874:.\Generated_Source\PSoC4/PWM.c **** * Return:
 875:.\Generated_Source\PSoC4/PWM.c **** *  Compare value
 876:.\Generated_Source\PSoC4/PWM.c **** *
 877:.\Generated_Source\PSoC4/PWM.c **** *******************************************************************************/
 878:.\Generated_Source\PSoC4/PWM.c **** uint32 PWM_ReadCompare(void)
 879:.\Generated_Source\PSoC4/PWM.c **** {
 767              		.loc 1 879 0
 768              		.cfi_startproc
 880:.\Generated_Source\PSoC4/PWM.c ****     #if (PWM_CY_TCPWM_4000)
 881:.\Generated_Source\PSoC4/PWM.c ****         uint32 currentMode;
 882:.\Generated_Source\PSoC4/PWM.c ****         uint32 regVal;
 883:.\Generated_Source\PSoC4/PWM.c ****     #endif /* (PWM_CY_TCPWM_4000) */
 884:.\Generated_Source\PSoC4/PWM.c **** 
 885:.\Generated_Source\PSoC4/PWM.c ****     #if (PWM_CY_TCPWM_4000)
ARM GAS  C:\Users\sunyi\AppData\Local\Temp\ccaHIROV.s 			page 30


 886:.\Generated_Source\PSoC4/PWM.c ****         currentMode = ((PWM_CONTROL_REG & PWM_UPDOWN_MASK) >> PWM_UPDOWN_SHIFT);
 887:.\Generated_Source\PSoC4/PWM.c ****         
 888:.\Generated_Source\PSoC4/PWM.c ****         regVal = PWM_COMP_CAP_REG;
 889:.\Generated_Source\PSoC4/PWM.c ****         
 890:.\Generated_Source\PSoC4/PWM.c ****         if (((uint32)PWM__COUNT_DOWN == currentMode) && (0u != regVal))
 891:.\Generated_Source\PSoC4/PWM.c ****         {
 892:.\Generated_Source\PSoC4/PWM.c ****             regVal--;
 893:.\Generated_Source\PSoC4/PWM.c ****         }
 894:.\Generated_Source\PSoC4/PWM.c ****         else if (((uint32)PWM__COUNT_UP == currentMode) && (0xFFFFu != regVal))
 895:.\Generated_Source\PSoC4/PWM.c ****         {
 896:.\Generated_Source\PSoC4/PWM.c ****             regVal++;
 897:.\Generated_Source\PSoC4/PWM.c ****         }
 898:.\Generated_Source\PSoC4/PWM.c ****         else
 899:.\Generated_Source\PSoC4/PWM.c ****         {
 900:.\Generated_Source\PSoC4/PWM.c ****         }
 901:.\Generated_Source\PSoC4/PWM.c **** 
 902:.\Generated_Source\PSoC4/PWM.c ****         return (regVal & PWM_16BIT_MASK);
 903:.\Generated_Source\PSoC4/PWM.c ****     #else
 904:.\Generated_Source\PSoC4/PWM.c ****         return (PWM_COMP_CAP_REG & PWM_16BIT_MASK);
 769              		.loc 1 904 0
 770 0000 024B     		ldr	r3, .L62
 771 0002 1868     		ldr	r0, [r3]
 772 0004 0004     		lsl	r0, r0, #16
 773 0006 000C     		lsr	r0, r0, #16
 905:.\Generated_Source\PSoC4/PWM.c ****     #endif /* (PWM_CY_TCPWM_4000) */
 906:.\Generated_Source\PSoC4/PWM.c **** }
 774              		.loc 1 906 0
 775              		@ sp needed
 776 0008 7047     		bx	lr
 777              	.L63:
 778 000a C046     		.align	2
 779              	.L62:
 780 000c 0C012040 		.word	1075839244
 781              		.cfi_endproc
 782              	.LFE25:
 783              		.size	PWM_ReadCompare, .-PWM_ReadCompare
 784              		.section	.text.PWM_WriteCompareBuf,"ax",%progbits
 785              		.align	2
 786              		.global	PWM_WriteCompareBuf
 787              		.code	16
 788              		.thumb_func
 789              		.type	PWM_WriteCompareBuf, %function
 790              	PWM_WriteCompareBuf:
 791              	.LFB26:
 907:.\Generated_Source\PSoC4/PWM.c **** 
 908:.\Generated_Source\PSoC4/PWM.c **** 
 909:.\Generated_Source\PSoC4/PWM.c **** /*******************************************************************************
 910:.\Generated_Source\PSoC4/PWM.c **** * Function Name: PWM_WriteCompareBuf
 911:.\Generated_Source\PSoC4/PWM.c **** ********************************************************************************
 912:.\Generated_Source\PSoC4/PWM.c **** *
 913:.\Generated_Source\PSoC4/PWM.c **** * Summary:
 914:.\Generated_Source\PSoC4/PWM.c **** *  Writes the 16 bit compare buffer register with the new compare value. Not
 915:.\Generated_Source\PSoC4/PWM.c **** *  applicable for Timer/Counter with Capture or in Quadrature Decoder modes.
 916:.\Generated_Source\PSoC4/PWM.c **** *
 917:.\Generated_Source\PSoC4/PWM.c **** * Parameters:
 918:.\Generated_Source\PSoC4/PWM.c **** *  compareBuf: Compare value
 919:.\Generated_Source\PSoC4/PWM.c **** *
ARM GAS  C:\Users\sunyi\AppData\Local\Temp\ccaHIROV.s 			page 31


 920:.\Generated_Source\PSoC4/PWM.c **** * Return:
 921:.\Generated_Source\PSoC4/PWM.c **** *  None
 922:.\Generated_Source\PSoC4/PWM.c **** *
 923:.\Generated_Source\PSoC4/PWM.c **** *******************************************************************************/
 924:.\Generated_Source\PSoC4/PWM.c **** void PWM_WriteCompareBuf(uint32 compareBuf)
 925:.\Generated_Source\PSoC4/PWM.c **** {
 792              		.loc 1 925 0
 793              		.cfi_startproc
 794              	.LVL56:
 926:.\Generated_Source\PSoC4/PWM.c ****     #if (PWM_CY_TCPWM_4000)
 927:.\Generated_Source\PSoC4/PWM.c ****         uint32 currentMode;
 928:.\Generated_Source\PSoC4/PWM.c ****     #endif /* (PWM_CY_TCPWM_4000) */
 929:.\Generated_Source\PSoC4/PWM.c **** 
 930:.\Generated_Source\PSoC4/PWM.c ****     #if (PWM_CY_TCPWM_4000)
 931:.\Generated_Source\PSoC4/PWM.c ****         currentMode = ((PWM_CONTROL_REG & PWM_UPDOWN_MASK) >> PWM_UPDOWN_SHIFT);
 932:.\Generated_Source\PSoC4/PWM.c **** 
 933:.\Generated_Source\PSoC4/PWM.c ****         if (((uint32)PWM__COUNT_DOWN == currentMode) && (0xFFFFu != compareBuf))
 934:.\Generated_Source\PSoC4/PWM.c ****         {
 935:.\Generated_Source\PSoC4/PWM.c ****             compareBuf++;
 936:.\Generated_Source\PSoC4/PWM.c ****         }
 937:.\Generated_Source\PSoC4/PWM.c ****         else if (((uint32)PWM__COUNT_UP == currentMode) && (0u != compareBuf))
 938:.\Generated_Source\PSoC4/PWM.c ****         {
 939:.\Generated_Source\PSoC4/PWM.c ****             compareBuf --;
 940:.\Generated_Source\PSoC4/PWM.c ****         }
 941:.\Generated_Source\PSoC4/PWM.c ****         else
 942:.\Generated_Source\PSoC4/PWM.c ****         {
 943:.\Generated_Source\PSoC4/PWM.c ****         }
 944:.\Generated_Source\PSoC4/PWM.c ****     #endif /* (PWM_CY_TCPWM_4000) */
 945:.\Generated_Source\PSoC4/PWM.c ****     
 946:.\Generated_Source\PSoC4/PWM.c ****     PWM_COMP_CAP_BUF_REG = (compareBuf & PWM_16BIT_MASK);
 795              		.loc 1 946 0
 796 0000 0004     		lsl	r0, r0, #16
 797              	.LVL57:
 798 0002 000C     		lsr	r0, r0, #16
 799 0004 014B     		ldr	r3, .L65
 800 0006 1860     		str	r0, [r3]
 947:.\Generated_Source\PSoC4/PWM.c **** }
 801              		.loc 1 947 0
 802              		@ sp needed
 803 0008 7047     		bx	lr
 804              	.L66:
 805 000a C046     		.align	2
 806              	.L65:
 807 000c 10012040 		.word	1075839248
 808              		.cfi_endproc
 809              	.LFE26:
 810              		.size	PWM_WriteCompareBuf, .-PWM_WriteCompareBuf
 811              		.section	.text.PWM_ReadCompareBuf,"ax",%progbits
 812              		.align	2
 813              		.global	PWM_ReadCompareBuf
 814              		.code	16
 815              		.thumb_func
 816              		.type	PWM_ReadCompareBuf, %function
 817              	PWM_ReadCompareBuf:
 818              	.LFB27:
 948:.\Generated_Source\PSoC4/PWM.c **** 
 949:.\Generated_Source\PSoC4/PWM.c **** 
ARM GAS  C:\Users\sunyi\AppData\Local\Temp\ccaHIROV.s 			page 32


 950:.\Generated_Source\PSoC4/PWM.c **** /*******************************************************************************
 951:.\Generated_Source\PSoC4/PWM.c **** * Function Name: PWM_ReadCompareBuf
 952:.\Generated_Source\PSoC4/PWM.c **** ********************************************************************************
 953:.\Generated_Source\PSoC4/PWM.c **** *
 954:.\Generated_Source\PSoC4/PWM.c **** * Summary:
 955:.\Generated_Source\PSoC4/PWM.c **** *  Reads the compare buffer register. Not applicable for Timer/Counter with
 956:.\Generated_Source\PSoC4/PWM.c **** *  Capture or in Quadrature Decoder modes.
 957:.\Generated_Source\PSoC4/PWM.c **** *
 958:.\Generated_Source\PSoC4/PWM.c **** * Parameters:
 959:.\Generated_Source\PSoC4/PWM.c **** *  None
 960:.\Generated_Source\PSoC4/PWM.c **** *
 961:.\Generated_Source\PSoC4/PWM.c **** * Return:
 962:.\Generated_Source\PSoC4/PWM.c **** *  Compare buffer value
 963:.\Generated_Source\PSoC4/PWM.c **** *
 964:.\Generated_Source\PSoC4/PWM.c **** *******************************************************************************/
 965:.\Generated_Source\PSoC4/PWM.c **** uint32 PWM_ReadCompareBuf(void)
 966:.\Generated_Source\PSoC4/PWM.c **** {
 819              		.loc 1 966 0
 820              		.cfi_startproc
 967:.\Generated_Source\PSoC4/PWM.c ****     #if (PWM_CY_TCPWM_4000)
 968:.\Generated_Source\PSoC4/PWM.c ****         uint32 currentMode;
 969:.\Generated_Source\PSoC4/PWM.c ****         uint32 regVal;
 970:.\Generated_Source\PSoC4/PWM.c ****     #endif /* (PWM_CY_TCPWM_4000) */
 971:.\Generated_Source\PSoC4/PWM.c **** 
 972:.\Generated_Source\PSoC4/PWM.c ****     #if (PWM_CY_TCPWM_4000)
 973:.\Generated_Source\PSoC4/PWM.c ****         currentMode = ((PWM_CONTROL_REG & PWM_UPDOWN_MASK) >> PWM_UPDOWN_SHIFT);
 974:.\Generated_Source\PSoC4/PWM.c **** 
 975:.\Generated_Source\PSoC4/PWM.c ****         regVal = PWM_COMP_CAP_BUF_REG;
 976:.\Generated_Source\PSoC4/PWM.c ****         
 977:.\Generated_Source\PSoC4/PWM.c ****         if (((uint32)PWM__COUNT_DOWN == currentMode) && (0u != regVal))
 978:.\Generated_Source\PSoC4/PWM.c ****         {
 979:.\Generated_Source\PSoC4/PWM.c ****             regVal--;
 980:.\Generated_Source\PSoC4/PWM.c ****         }
 981:.\Generated_Source\PSoC4/PWM.c ****         else if (((uint32)PWM__COUNT_UP == currentMode) && (0xFFFFu != regVal))
 982:.\Generated_Source\PSoC4/PWM.c ****         {
 983:.\Generated_Source\PSoC4/PWM.c ****             regVal++;
 984:.\Generated_Source\PSoC4/PWM.c ****         }
 985:.\Generated_Source\PSoC4/PWM.c ****         else
 986:.\Generated_Source\PSoC4/PWM.c ****         {
 987:.\Generated_Source\PSoC4/PWM.c ****         }
 988:.\Generated_Source\PSoC4/PWM.c **** 
 989:.\Generated_Source\PSoC4/PWM.c ****         return (regVal & PWM_16BIT_MASK);
 990:.\Generated_Source\PSoC4/PWM.c ****     #else
 991:.\Generated_Source\PSoC4/PWM.c ****         return (PWM_COMP_CAP_BUF_REG & PWM_16BIT_MASK);
 821              		.loc 1 991 0
 822 0000 024B     		ldr	r3, .L68
 823 0002 1868     		ldr	r0, [r3]
 824 0004 0004     		lsl	r0, r0, #16
 825 0006 000C     		lsr	r0, r0, #16
 992:.\Generated_Source\PSoC4/PWM.c ****     #endif /* (PWM_CY_TCPWM_4000) */
 993:.\Generated_Source\PSoC4/PWM.c **** }
 826              		.loc 1 993 0
 827              		@ sp needed
 828 0008 7047     		bx	lr
 829              	.L69:
 830 000a C046     		.align	2
 831              	.L68:
ARM GAS  C:\Users\sunyi\AppData\Local\Temp\ccaHIROV.s 			page 33


 832 000c 10012040 		.word	1075839248
 833              		.cfi_endproc
 834              	.LFE27:
 835              		.size	PWM_ReadCompareBuf, .-PWM_ReadCompareBuf
 836              		.section	.text.PWM_ReadCapture,"ax",%progbits
 837              		.align	2
 838              		.global	PWM_ReadCapture
 839              		.code	16
 840              		.thumb_func
 841              		.type	PWM_ReadCapture, %function
 842              	PWM_ReadCapture:
 843              	.LFB28:
 994:.\Generated_Source\PSoC4/PWM.c **** 
 995:.\Generated_Source\PSoC4/PWM.c **** 
 996:.\Generated_Source\PSoC4/PWM.c **** /*******************************************************************************
 997:.\Generated_Source\PSoC4/PWM.c **** * Function Name: PWM_ReadCapture
 998:.\Generated_Source\PSoC4/PWM.c **** ********************************************************************************
 999:.\Generated_Source\PSoC4/PWM.c **** *
1000:.\Generated_Source\PSoC4/PWM.c **** * Summary:
1001:.\Generated_Source\PSoC4/PWM.c **** *  Reads the captured counter value. This API is applicable only for
1002:.\Generated_Source\PSoC4/PWM.c **** *  Timer/Counter with the capture mode and Quadrature Decoder modes.
1003:.\Generated_Source\PSoC4/PWM.c **** *
1004:.\Generated_Source\PSoC4/PWM.c **** * Parameters:
1005:.\Generated_Source\PSoC4/PWM.c **** *  None
1006:.\Generated_Source\PSoC4/PWM.c **** *
1007:.\Generated_Source\PSoC4/PWM.c **** * Return:
1008:.\Generated_Source\PSoC4/PWM.c **** *  Capture value
1009:.\Generated_Source\PSoC4/PWM.c **** *
1010:.\Generated_Source\PSoC4/PWM.c **** *******************************************************************************/
1011:.\Generated_Source\PSoC4/PWM.c **** uint32 PWM_ReadCapture(void)
1012:.\Generated_Source\PSoC4/PWM.c **** {
 844              		.loc 1 1012 0
 845              		.cfi_startproc
1013:.\Generated_Source\PSoC4/PWM.c ****     return (PWM_COMP_CAP_REG & PWM_16BIT_MASK);
 846              		.loc 1 1013 0
 847 0000 024B     		ldr	r3, .L71
 848 0002 1868     		ldr	r0, [r3]
 849 0004 0004     		lsl	r0, r0, #16
 850 0006 000C     		lsr	r0, r0, #16
1014:.\Generated_Source\PSoC4/PWM.c **** }
 851              		.loc 1 1014 0
 852              		@ sp needed
 853 0008 7047     		bx	lr
 854              	.L72:
 855 000a C046     		.align	2
 856              	.L71:
 857 000c 0C012040 		.word	1075839244
 858              		.cfi_endproc
 859              	.LFE28:
 860              		.size	PWM_ReadCapture, .-PWM_ReadCapture
 861              		.section	.text.PWM_ReadCaptureBuf,"ax",%progbits
 862              		.align	2
 863              		.global	PWM_ReadCaptureBuf
 864              		.code	16
 865              		.thumb_func
 866              		.type	PWM_ReadCaptureBuf, %function
 867              	PWM_ReadCaptureBuf:
ARM GAS  C:\Users\sunyi\AppData\Local\Temp\ccaHIROV.s 			page 34


 868              	.LFB29:
1015:.\Generated_Source\PSoC4/PWM.c **** 
1016:.\Generated_Source\PSoC4/PWM.c **** 
1017:.\Generated_Source\PSoC4/PWM.c **** /*******************************************************************************
1018:.\Generated_Source\PSoC4/PWM.c **** * Function Name: PWM_ReadCaptureBuf
1019:.\Generated_Source\PSoC4/PWM.c **** ********************************************************************************
1020:.\Generated_Source\PSoC4/PWM.c **** *
1021:.\Generated_Source\PSoC4/PWM.c **** * Summary:
1022:.\Generated_Source\PSoC4/PWM.c **** *  Reads the capture buffer register. This API is applicable only for
1023:.\Generated_Source\PSoC4/PWM.c **** *  Timer/Counter with the capture mode and Quadrature Decoder modes.
1024:.\Generated_Source\PSoC4/PWM.c **** *
1025:.\Generated_Source\PSoC4/PWM.c **** * Parameters:
1026:.\Generated_Source\PSoC4/PWM.c **** *  None
1027:.\Generated_Source\PSoC4/PWM.c **** *
1028:.\Generated_Source\PSoC4/PWM.c **** * Return:
1029:.\Generated_Source\PSoC4/PWM.c **** *  Capture buffer value
1030:.\Generated_Source\PSoC4/PWM.c **** *
1031:.\Generated_Source\PSoC4/PWM.c **** *******************************************************************************/
1032:.\Generated_Source\PSoC4/PWM.c **** uint32 PWM_ReadCaptureBuf(void)
1033:.\Generated_Source\PSoC4/PWM.c **** {
 869              		.loc 1 1033 0
 870              		.cfi_startproc
1034:.\Generated_Source\PSoC4/PWM.c ****     return (PWM_COMP_CAP_BUF_REG & PWM_16BIT_MASK);
 871              		.loc 1 1034 0
 872 0000 024B     		ldr	r3, .L74
 873 0002 1868     		ldr	r0, [r3]
 874 0004 0004     		lsl	r0, r0, #16
 875 0006 000C     		lsr	r0, r0, #16
1035:.\Generated_Source\PSoC4/PWM.c **** }
 876              		.loc 1 1035 0
 877              		@ sp needed
 878 0008 7047     		bx	lr
 879              	.L75:
 880 000a C046     		.align	2
 881              	.L74:
 882 000c 10012040 		.word	1075839248
 883              		.cfi_endproc
 884              	.LFE29:
 885              		.size	PWM_ReadCaptureBuf, .-PWM_ReadCaptureBuf
 886              		.section	.text.PWM_SetCaptureMode,"ax",%progbits
 887              		.align	2
 888              		.global	PWM_SetCaptureMode
 889              		.code	16
 890              		.thumb_func
 891              		.type	PWM_SetCaptureMode, %function
 892              	PWM_SetCaptureMode:
 893              	.LFB30:
1036:.\Generated_Source\PSoC4/PWM.c **** 
1037:.\Generated_Source\PSoC4/PWM.c **** 
1038:.\Generated_Source\PSoC4/PWM.c **** /*******************************************************************************
1039:.\Generated_Source\PSoC4/PWM.c **** * Function Name: PWM_SetCaptureMode
1040:.\Generated_Source\PSoC4/PWM.c **** ********************************************************************************
1041:.\Generated_Source\PSoC4/PWM.c **** *
1042:.\Generated_Source\PSoC4/PWM.c **** * Summary:
1043:.\Generated_Source\PSoC4/PWM.c **** *  Sets the capture trigger mode. For PWM mode this is the switch input.
1044:.\Generated_Source\PSoC4/PWM.c **** *  This input is not applicable to the Timer/Counter without Capture and
1045:.\Generated_Source\PSoC4/PWM.c **** *  Quadrature Decoder modes.
ARM GAS  C:\Users\sunyi\AppData\Local\Temp\ccaHIROV.s 			page 35


1046:.\Generated_Source\PSoC4/PWM.c **** *
1047:.\Generated_Source\PSoC4/PWM.c **** * Parameters:
1048:.\Generated_Source\PSoC4/PWM.c **** *  triggerMode: Enumerated trigger mode value
1049:.\Generated_Source\PSoC4/PWM.c **** *   Values:
1050:.\Generated_Source\PSoC4/PWM.c **** *     - PWM_TRIG_LEVEL     - Level
1051:.\Generated_Source\PSoC4/PWM.c **** *     - PWM_TRIG_RISING    - Rising edge
1052:.\Generated_Source\PSoC4/PWM.c **** *     - PWM_TRIG_FALLING   - Falling edge
1053:.\Generated_Source\PSoC4/PWM.c **** *     - PWM_TRIG_BOTH      - Both rising and falling edge
1054:.\Generated_Source\PSoC4/PWM.c **** *
1055:.\Generated_Source\PSoC4/PWM.c **** * Return:
1056:.\Generated_Source\PSoC4/PWM.c **** *  None
1057:.\Generated_Source\PSoC4/PWM.c **** *
1058:.\Generated_Source\PSoC4/PWM.c **** *******************************************************************************/
1059:.\Generated_Source\PSoC4/PWM.c **** void PWM_SetCaptureMode(uint32 triggerMode)
1060:.\Generated_Source\PSoC4/PWM.c **** {
 894              		.loc 1 1060 0
 895              		.cfi_startproc
 896              	.LVL58:
 897 0000 10B5     		push	{r4, lr}
 898              		.cfi_def_cfa_offset 8
 899              		.cfi_offset 4, -8
 900              		.cfi_offset 14, -4
 901 0002 041C     		mov	r4, r0
1061:.\Generated_Source\PSoC4/PWM.c ****     uint8 enableInterrupts;
1062:.\Generated_Source\PSoC4/PWM.c **** 
1063:.\Generated_Source\PSoC4/PWM.c ****     enableInterrupts = CyEnterCriticalSection();
 902              		.loc 1 1063 0
 903 0004 FFF7FEFF 		bl	CyEnterCriticalSection
 904              	.LVL59:
1064:.\Generated_Source\PSoC4/PWM.c **** 
1065:.\Generated_Source\PSoC4/PWM.c ****     PWM_TRIG_CONTROL1_REG &= (uint32)~PWM_CAPTURE_MASK;
 905              		.loc 1 1065 0
 906 0008 054B     		ldr	r3, .L77
 907 000a 1A68     		ldr	r2, [r3]
 908 000c 0321     		mov	r1, #3
 909 000e 8A43     		bic	r2, r1
 910 0010 1A60     		str	r2, [r3]
1066:.\Generated_Source\PSoC4/PWM.c ****     PWM_TRIG_CONTROL1_REG |= triggerMode;
 911              		.loc 1 1066 0
 912 0012 1A68     		ldr	r2, [r3]
 913 0014 1443     		orr	r4, r2
 914              	.LVL60:
 915 0016 1C60     		str	r4, [r3]
1067:.\Generated_Source\PSoC4/PWM.c **** 
1068:.\Generated_Source\PSoC4/PWM.c ****     CyExitCriticalSection(enableInterrupts);
 916              		.loc 1 1068 0
 917 0018 FFF7FEFF 		bl	CyExitCriticalSection
 918              	.LVL61:
1069:.\Generated_Source\PSoC4/PWM.c **** }
 919              		.loc 1 1069 0
 920              		@ sp needed
 921 001c 10BD     		pop	{r4, pc}
 922              	.L78:
 923 001e C046     		.align	2
 924              	.L77:
 925 0020 24012040 		.word	1075839268
 926              		.cfi_endproc
ARM GAS  C:\Users\sunyi\AppData\Local\Temp\ccaHIROV.s 			page 36


 927              	.LFE30:
 928              		.size	PWM_SetCaptureMode, .-PWM_SetCaptureMode
 929              		.section	.text.PWM_SetReloadMode,"ax",%progbits
 930              		.align	2
 931              		.global	PWM_SetReloadMode
 932              		.code	16
 933              		.thumb_func
 934              		.type	PWM_SetReloadMode, %function
 935              	PWM_SetReloadMode:
 936              	.LFB31:
1070:.\Generated_Source\PSoC4/PWM.c **** 
1071:.\Generated_Source\PSoC4/PWM.c **** 
1072:.\Generated_Source\PSoC4/PWM.c **** /*******************************************************************************
1073:.\Generated_Source\PSoC4/PWM.c **** * Function Name: PWM_SetReloadMode
1074:.\Generated_Source\PSoC4/PWM.c **** ********************************************************************************
1075:.\Generated_Source\PSoC4/PWM.c **** *
1076:.\Generated_Source\PSoC4/PWM.c **** * Summary:
1077:.\Generated_Source\PSoC4/PWM.c **** *  Sets the reload trigger mode. For Quadrature Decoder mode this is the index
1078:.\Generated_Source\PSoC4/PWM.c **** *  input.
1079:.\Generated_Source\PSoC4/PWM.c **** *
1080:.\Generated_Source\PSoC4/PWM.c **** * Parameters:
1081:.\Generated_Source\PSoC4/PWM.c **** *  triggerMode: Enumerated trigger mode value
1082:.\Generated_Source\PSoC4/PWM.c **** *   Values:
1083:.\Generated_Source\PSoC4/PWM.c **** *     - PWM_TRIG_LEVEL     - Level
1084:.\Generated_Source\PSoC4/PWM.c **** *     - PWM_TRIG_RISING    - Rising edge
1085:.\Generated_Source\PSoC4/PWM.c **** *     - PWM_TRIG_FALLING   - Falling edge
1086:.\Generated_Source\PSoC4/PWM.c **** *     - PWM_TRIG_BOTH      - Both rising and falling edge
1087:.\Generated_Source\PSoC4/PWM.c **** *
1088:.\Generated_Source\PSoC4/PWM.c **** * Return:
1089:.\Generated_Source\PSoC4/PWM.c **** *  None
1090:.\Generated_Source\PSoC4/PWM.c **** *
1091:.\Generated_Source\PSoC4/PWM.c **** *******************************************************************************/
1092:.\Generated_Source\PSoC4/PWM.c **** void PWM_SetReloadMode(uint32 triggerMode)
1093:.\Generated_Source\PSoC4/PWM.c **** {
 937              		.loc 1 1093 0
 938              		.cfi_startproc
 939              	.LVL62:
 940 0000 10B5     		push	{r4, lr}
 941              		.cfi_def_cfa_offset 8
 942              		.cfi_offset 4, -8
 943              		.cfi_offset 14, -4
 944 0002 041C     		mov	r4, r0
1094:.\Generated_Source\PSoC4/PWM.c ****     uint8 enableInterrupts;
1095:.\Generated_Source\PSoC4/PWM.c **** 
1096:.\Generated_Source\PSoC4/PWM.c ****     enableInterrupts = CyEnterCriticalSection();
 945              		.loc 1 1096 0
 946 0004 FFF7FEFF 		bl	CyEnterCriticalSection
 947              	.LVL63:
1097:.\Generated_Source\PSoC4/PWM.c **** 
1098:.\Generated_Source\PSoC4/PWM.c ****     PWM_TRIG_CONTROL1_REG &= (uint32)~PWM_RELOAD_MASK;
 948              		.loc 1 1098 0
 949 0008 054B     		ldr	r3, .L80
 950 000a 1A68     		ldr	r2, [r3]
 951 000c 3021     		mov	r1, #48
 952 000e 8A43     		bic	r2, r1
 953 0010 1A60     		str	r2, [r3]
1099:.\Generated_Source\PSoC4/PWM.c ****     PWM_TRIG_CONTROL1_REG |= ((uint32)(triggerMode << PWM_RELOAD_SHIFT));
ARM GAS  C:\Users\sunyi\AppData\Local\Temp\ccaHIROV.s 			page 37


 954              		.loc 1 1099 0
 955 0012 1A68     		ldr	r2, [r3]
 956 0014 2401     		lsl	r4, r4, #4
 957              	.LVL64:
 958 0016 1443     		orr	r4, r2
 959 0018 1C60     		str	r4, [r3]
1100:.\Generated_Source\PSoC4/PWM.c **** 
1101:.\Generated_Source\PSoC4/PWM.c ****     CyExitCriticalSection(enableInterrupts);
 960              		.loc 1 1101 0
 961 001a FFF7FEFF 		bl	CyExitCriticalSection
 962              	.LVL65:
1102:.\Generated_Source\PSoC4/PWM.c **** }
 963              		.loc 1 1102 0
 964              		@ sp needed
 965 001e 10BD     		pop	{r4, pc}
 966              	.L81:
 967              		.align	2
 968              	.L80:
 969 0020 24012040 		.word	1075839268
 970              		.cfi_endproc
 971              	.LFE31:
 972              		.size	PWM_SetReloadMode, .-PWM_SetReloadMode
 973              		.section	.text.PWM_SetStartMode,"ax",%progbits
 974              		.align	2
 975              		.global	PWM_SetStartMode
 976              		.code	16
 977              		.thumb_func
 978              		.type	PWM_SetStartMode, %function
 979              	PWM_SetStartMode:
 980              	.LFB32:
1103:.\Generated_Source\PSoC4/PWM.c **** 
1104:.\Generated_Source\PSoC4/PWM.c **** 
1105:.\Generated_Source\PSoC4/PWM.c **** /*******************************************************************************
1106:.\Generated_Source\PSoC4/PWM.c **** * Function Name: PWM_SetStartMode
1107:.\Generated_Source\PSoC4/PWM.c **** ********************************************************************************
1108:.\Generated_Source\PSoC4/PWM.c **** *
1109:.\Generated_Source\PSoC4/PWM.c **** * Summary:
1110:.\Generated_Source\PSoC4/PWM.c **** *  Sets the start trigger mode. For Quadrature Decoder mode this is the
1111:.\Generated_Source\PSoC4/PWM.c **** *  phiB input.
1112:.\Generated_Source\PSoC4/PWM.c **** *
1113:.\Generated_Source\PSoC4/PWM.c **** * Parameters:
1114:.\Generated_Source\PSoC4/PWM.c **** *  triggerMode: Enumerated trigger mode value
1115:.\Generated_Source\PSoC4/PWM.c **** *   Values:
1116:.\Generated_Source\PSoC4/PWM.c **** *     - PWM_TRIG_LEVEL     - Level
1117:.\Generated_Source\PSoC4/PWM.c **** *     - PWM_TRIG_RISING    - Rising edge
1118:.\Generated_Source\PSoC4/PWM.c **** *     - PWM_TRIG_FALLING   - Falling edge
1119:.\Generated_Source\PSoC4/PWM.c **** *     - PWM_TRIG_BOTH      - Both rising and falling edge
1120:.\Generated_Source\PSoC4/PWM.c **** *
1121:.\Generated_Source\PSoC4/PWM.c **** * Return:
1122:.\Generated_Source\PSoC4/PWM.c **** *  None
1123:.\Generated_Source\PSoC4/PWM.c **** *
1124:.\Generated_Source\PSoC4/PWM.c **** *******************************************************************************/
1125:.\Generated_Source\PSoC4/PWM.c **** void PWM_SetStartMode(uint32 triggerMode)
1126:.\Generated_Source\PSoC4/PWM.c **** {
 981              		.loc 1 1126 0
 982              		.cfi_startproc
 983              	.LVL66:
ARM GAS  C:\Users\sunyi\AppData\Local\Temp\ccaHIROV.s 			page 38


 984 0000 10B5     		push	{r4, lr}
 985              		.cfi_def_cfa_offset 8
 986              		.cfi_offset 4, -8
 987              		.cfi_offset 14, -4
 988 0002 041C     		mov	r4, r0
1127:.\Generated_Source\PSoC4/PWM.c ****     uint8 enableInterrupts;
1128:.\Generated_Source\PSoC4/PWM.c **** 
1129:.\Generated_Source\PSoC4/PWM.c ****     enableInterrupts = CyEnterCriticalSection();
 989              		.loc 1 1129 0
 990 0004 FFF7FEFF 		bl	CyEnterCriticalSection
 991              	.LVL67:
1130:.\Generated_Source\PSoC4/PWM.c **** 
1131:.\Generated_Source\PSoC4/PWM.c ****     PWM_TRIG_CONTROL1_REG &= (uint32)~PWM_START_MASK;
 992              		.loc 1 1131 0
 993 0008 054B     		ldr	r3, .L83
 994 000a 1968     		ldr	r1, [r3]
 995 000c 054A     		ldr	r2, .L83+4
 996 000e 0A40     		and	r2, r1
 997 0010 1A60     		str	r2, [r3]
1132:.\Generated_Source\PSoC4/PWM.c ****     PWM_TRIG_CONTROL1_REG |= ((uint32)(triggerMode << PWM_START_SHIFT));
 998              		.loc 1 1132 0
 999 0012 1A68     		ldr	r2, [r3]
 1000 0014 2402     		lsl	r4, r4, #8
 1001              	.LVL68:
 1002 0016 1443     		orr	r4, r2
 1003 0018 1C60     		str	r4, [r3]
1133:.\Generated_Source\PSoC4/PWM.c **** 
1134:.\Generated_Source\PSoC4/PWM.c ****     CyExitCriticalSection(enableInterrupts);
 1004              		.loc 1 1134 0
 1005 001a FFF7FEFF 		bl	CyExitCriticalSection
 1006              	.LVL69:
1135:.\Generated_Source\PSoC4/PWM.c **** }
 1007              		.loc 1 1135 0
 1008              		@ sp needed
 1009 001e 10BD     		pop	{r4, pc}
 1010              	.L84:
 1011              		.align	2
 1012              	.L83:
 1013 0020 24012040 		.word	1075839268
 1014 0024 FFFCFFFF 		.word	-769
 1015              		.cfi_endproc
 1016              	.LFE32:
 1017              		.size	PWM_SetStartMode, .-PWM_SetStartMode
 1018              		.section	.text.PWM_SetStopMode,"ax",%progbits
 1019              		.align	2
 1020              		.global	PWM_SetStopMode
 1021              		.code	16
 1022              		.thumb_func
 1023              		.type	PWM_SetStopMode, %function
 1024              	PWM_SetStopMode:
 1025              	.LFB33:
1136:.\Generated_Source\PSoC4/PWM.c **** 
1137:.\Generated_Source\PSoC4/PWM.c **** 
1138:.\Generated_Source\PSoC4/PWM.c **** /*******************************************************************************
1139:.\Generated_Source\PSoC4/PWM.c **** * Function Name: PWM_SetStopMode
1140:.\Generated_Source\PSoC4/PWM.c **** ********************************************************************************
1141:.\Generated_Source\PSoC4/PWM.c **** *
ARM GAS  C:\Users\sunyi\AppData\Local\Temp\ccaHIROV.s 			page 39


1142:.\Generated_Source\PSoC4/PWM.c **** * Summary:
1143:.\Generated_Source\PSoC4/PWM.c **** *  Sets the stop trigger mode. For PWM mode this is the kill input.
1144:.\Generated_Source\PSoC4/PWM.c **** *
1145:.\Generated_Source\PSoC4/PWM.c **** * Parameters:
1146:.\Generated_Source\PSoC4/PWM.c **** *  triggerMode: Enumerated trigger mode value
1147:.\Generated_Source\PSoC4/PWM.c **** *   Values:
1148:.\Generated_Source\PSoC4/PWM.c **** *     - PWM_TRIG_LEVEL     - Level
1149:.\Generated_Source\PSoC4/PWM.c **** *     - PWM_TRIG_RISING    - Rising edge
1150:.\Generated_Source\PSoC4/PWM.c **** *     - PWM_TRIG_FALLING   - Falling edge
1151:.\Generated_Source\PSoC4/PWM.c **** *     - PWM_TRIG_BOTH      - Both rising and falling edge
1152:.\Generated_Source\PSoC4/PWM.c **** *
1153:.\Generated_Source\PSoC4/PWM.c **** * Return:
1154:.\Generated_Source\PSoC4/PWM.c **** *  None
1155:.\Generated_Source\PSoC4/PWM.c **** *
1156:.\Generated_Source\PSoC4/PWM.c **** *******************************************************************************/
1157:.\Generated_Source\PSoC4/PWM.c **** void PWM_SetStopMode(uint32 triggerMode)
1158:.\Generated_Source\PSoC4/PWM.c **** {
 1026              		.loc 1 1158 0
 1027              		.cfi_startproc
 1028              	.LVL70:
 1029 0000 10B5     		push	{r4, lr}
 1030              		.cfi_def_cfa_offset 8
 1031              		.cfi_offset 4, -8
 1032              		.cfi_offset 14, -4
 1033 0002 041C     		mov	r4, r0
1159:.\Generated_Source\PSoC4/PWM.c ****     uint8 enableInterrupts;
1160:.\Generated_Source\PSoC4/PWM.c **** 
1161:.\Generated_Source\PSoC4/PWM.c ****     enableInterrupts = CyEnterCriticalSection();
 1034              		.loc 1 1161 0
 1035 0004 FFF7FEFF 		bl	CyEnterCriticalSection
 1036              	.LVL71:
1162:.\Generated_Source\PSoC4/PWM.c **** 
1163:.\Generated_Source\PSoC4/PWM.c ****     PWM_TRIG_CONTROL1_REG &= (uint32)~PWM_STOP_MASK;
 1037              		.loc 1 1163 0
 1038 0008 054B     		ldr	r3, .L86
 1039 000a 1A68     		ldr	r2, [r3]
 1040 000c C021     		mov	r1, #192
 1041 000e 8A43     		bic	r2, r1
 1042 0010 1A60     		str	r2, [r3]
1164:.\Generated_Source\PSoC4/PWM.c ****     PWM_TRIG_CONTROL1_REG |= ((uint32)(triggerMode << PWM_STOP_SHIFT));
 1043              		.loc 1 1164 0
 1044 0012 1A68     		ldr	r2, [r3]
 1045 0014 A401     		lsl	r4, r4, #6
 1046              	.LVL72:
 1047 0016 1443     		orr	r4, r2
 1048 0018 1C60     		str	r4, [r3]
1165:.\Generated_Source\PSoC4/PWM.c **** 
1166:.\Generated_Source\PSoC4/PWM.c ****     CyExitCriticalSection(enableInterrupts);
 1049              		.loc 1 1166 0
 1050 001a FFF7FEFF 		bl	CyExitCriticalSection
 1051              	.LVL73:
1167:.\Generated_Source\PSoC4/PWM.c **** }
 1052              		.loc 1 1167 0
 1053              		@ sp needed
 1054 001e 10BD     		pop	{r4, pc}
 1055              	.L87:
 1056              		.align	2
ARM GAS  C:\Users\sunyi\AppData\Local\Temp\ccaHIROV.s 			page 40


 1057              	.L86:
 1058 0020 24012040 		.word	1075839268
 1059              		.cfi_endproc
 1060              	.LFE33:
 1061              		.size	PWM_SetStopMode, .-PWM_SetStopMode
 1062              		.section	.text.PWM_SetCountMode,"ax",%progbits
 1063              		.align	2
 1064              		.global	PWM_SetCountMode
 1065              		.code	16
 1066              		.thumb_func
 1067              		.type	PWM_SetCountMode, %function
 1068              	PWM_SetCountMode:
 1069              	.LFB34:
1168:.\Generated_Source\PSoC4/PWM.c **** 
1169:.\Generated_Source\PSoC4/PWM.c **** 
1170:.\Generated_Source\PSoC4/PWM.c **** /*******************************************************************************
1171:.\Generated_Source\PSoC4/PWM.c **** * Function Name: PWM_SetCountMode
1172:.\Generated_Source\PSoC4/PWM.c **** ********************************************************************************
1173:.\Generated_Source\PSoC4/PWM.c **** *
1174:.\Generated_Source\PSoC4/PWM.c **** * Summary:
1175:.\Generated_Source\PSoC4/PWM.c **** *  Sets the count trigger mode. For Quadrature Decoder mode this is the phiA
1176:.\Generated_Source\PSoC4/PWM.c **** *  input.
1177:.\Generated_Source\PSoC4/PWM.c **** *
1178:.\Generated_Source\PSoC4/PWM.c **** * Parameters:
1179:.\Generated_Source\PSoC4/PWM.c **** *  triggerMode: Enumerated trigger mode value
1180:.\Generated_Source\PSoC4/PWM.c **** *   Values:
1181:.\Generated_Source\PSoC4/PWM.c **** *     - PWM_TRIG_LEVEL     - Level
1182:.\Generated_Source\PSoC4/PWM.c **** *     - PWM_TRIG_RISING    - Rising edge
1183:.\Generated_Source\PSoC4/PWM.c **** *     - PWM_TRIG_FALLING   - Falling edge
1184:.\Generated_Source\PSoC4/PWM.c **** *     - PWM_TRIG_BOTH      - Both rising and falling edge
1185:.\Generated_Source\PSoC4/PWM.c **** *
1186:.\Generated_Source\PSoC4/PWM.c **** * Return:
1187:.\Generated_Source\PSoC4/PWM.c **** *  None
1188:.\Generated_Source\PSoC4/PWM.c **** *
1189:.\Generated_Source\PSoC4/PWM.c **** *******************************************************************************/
1190:.\Generated_Source\PSoC4/PWM.c **** void PWM_SetCountMode(uint32 triggerMode)
1191:.\Generated_Source\PSoC4/PWM.c **** {
 1070              		.loc 1 1191 0
 1071              		.cfi_startproc
 1072              	.LVL74:
 1073 0000 10B5     		push	{r4, lr}
 1074              		.cfi_def_cfa_offset 8
 1075              		.cfi_offset 4, -8
 1076              		.cfi_offset 14, -4
 1077 0002 041C     		mov	r4, r0
1192:.\Generated_Source\PSoC4/PWM.c ****     uint8 enableInterrupts;
1193:.\Generated_Source\PSoC4/PWM.c **** 
1194:.\Generated_Source\PSoC4/PWM.c ****     enableInterrupts = CyEnterCriticalSection();
 1078              		.loc 1 1194 0
 1079 0004 FFF7FEFF 		bl	CyEnterCriticalSection
 1080              	.LVL75:
1195:.\Generated_Source\PSoC4/PWM.c **** 
1196:.\Generated_Source\PSoC4/PWM.c ****     PWM_TRIG_CONTROL1_REG &= (uint32)~PWM_COUNT_MASK;
 1081              		.loc 1 1196 0
 1082 0008 054B     		ldr	r3, .L89
 1083 000a 1A68     		ldr	r2, [r3]
 1084 000c 0C21     		mov	r1, #12
ARM GAS  C:\Users\sunyi\AppData\Local\Temp\ccaHIROV.s 			page 41


 1085 000e 8A43     		bic	r2, r1
 1086 0010 1A60     		str	r2, [r3]
1197:.\Generated_Source\PSoC4/PWM.c ****     PWM_TRIG_CONTROL1_REG |= ((uint32)(triggerMode << PWM_COUNT_SHIFT));
 1087              		.loc 1 1197 0
 1088 0012 1A68     		ldr	r2, [r3]
 1089 0014 A400     		lsl	r4, r4, #2
 1090              	.LVL76:
 1091 0016 1443     		orr	r4, r2
 1092 0018 1C60     		str	r4, [r3]
1198:.\Generated_Source\PSoC4/PWM.c **** 
1199:.\Generated_Source\PSoC4/PWM.c ****     CyExitCriticalSection(enableInterrupts);
 1093              		.loc 1 1199 0
 1094 001a FFF7FEFF 		bl	CyExitCriticalSection
 1095              	.LVL77:
1200:.\Generated_Source\PSoC4/PWM.c **** }
 1096              		.loc 1 1200 0
 1097              		@ sp needed
 1098 001e 10BD     		pop	{r4, pc}
 1099              	.L90:
 1100              		.align	2
 1101              	.L89:
 1102 0020 24012040 		.word	1075839268
 1103              		.cfi_endproc
 1104              	.LFE34:
 1105              		.size	PWM_SetCountMode, .-PWM_SetCountMode
 1106              		.section	.text.PWM_TriggerCommand,"ax",%progbits
 1107              		.align	2
 1108              		.global	PWM_TriggerCommand
 1109              		.code	16
 1110              		.thumb_func
 1111              		.type	PWM_TriggerCommand, %function
 1112              	PWM_TriggerCommand:
 1113              	.LFB35:
1201:.\Generated_Source\PSoC4/PWM.c **** 
1202:.\Generated_Source\PSoC4/PWM.c **** 
1203:.\Generated_Source\PSoC4/PWM.c **** /*******************************************************************************
1204:.\Generated_Source\PSoC4/PWM.c **** * Function Name: PWM_TriggerCommand
1205:.\Generated_Source\PSoC4/PWM.c **** ********************************************************************************
1206:.\Generated_Source\PSoC4/PWM.c **** *
1207:.\Generated_Source\PSoC4/PWM.c **** * Summary:
1208:.\Generated_Source\PSoC4/PWM.c **** *  Triggers the designated command to occur on the designated TCPWM instances.
1209:.\Generated_Source\PSoC4/PWM.c **** *  The mask can be used to apply this command simultaneously to more than one
1210:.\Generated_Source\PSoC4/PWM.c **** *  instance.  This allows multiple TCPWM instances to be synchronized.
1211:.\Generated_Source\PSoC4/PWM.c **** *
1212:.\Generated_Source\PSoC4/PWM.c **** * Parameters:
1213:.\Generated_Source\PSoC4/PWM.c **** *  mask: A combination of mask bits for each instance of the TCPWM that the
1214:.\Generated_Source\PSoC4/PWM.c **** *        command should apply to.  This function from one instance can be used
1215:.\Generated_Source\PSoC4/PWM.c **** *        to apply the command to any of the instances in the design.
1216:.\Generated_Source\PSoC4/PWM.c **** *        The mask value for a specific instance is available with the MASK
1217:.\Generated_Source\PSoC4/PWM.c **** *        define.
1218:.\Generated_Source\PSoC4/PWM.c **** *  command: Enumerated command values. Capture command only applicable for
1219:.\Generated_Source\PSoC4/PWM.c **** *           Timer/Counter with Capture and PWM modes.
1220:.\Generated_Source\PSoC4/PWM.c **** *   Values:
1221:.\Generated_Source\PSoC4/PWM.c **** *     - PWM_CMD_CAPTURE    - Trigger Capture command
1222:.\Generated_Source\PSoC4/PWM.c **** *     - PWM_CMD_RELOAD     - Trigger Reload command
1223:.\Generated_Source\PSoC4/PWM.c **** *     - PWM_CMD_STOP       - Trigger Stop command
1224:.\Generated_Source\PSoC4/PWM.c **** *     - PWM_CMD_START      - Trigger Start command
ARM GAS  C:\Users\sunyi\AppData\Local\Temp\ccaHIROV.s 			page 42


1225:.\Generated_Source\PSoC4/PWM.c **** *
1226:.\Generated_Source\PSoC4/PWM.c **** * Return:
1227:.\Generated_Source\PSoC4/PWM.c **** *  None
1228:.\Generated_Source\PSoC4/PWM.c **** *
1229:.\Generated_Source\PSoC4/PWM.c **** *******************************************************************************/
1230:.\Generated_Source\PSoC4/PWM.c **** void PWM_TriggerCommand(uint32 mask, uint32 command)
1231:.\Generated_Source\PSoC4/PWM.c **** {
 1114              		.loc 1 1231 0
 1115              		.cfi_startproc
 1116              	.LVL78:
 1117 0000 38B5     		push	{r3, r4, r5, lr}
 1118              		.cfi_def_cfa_offset 16
 1119              		.cfi_offset 3, -16
 1120              		.cfi_offset 4, -12
 1121              		.cfi_offset 5, -8
 1122              		.cfi_offset 14, -4
 1123 0002 041C     		mov	r4, r0
 1124 0004 0D1C     		mov	r5, r1
1232:.\Generated_Source\PSoC4/PWM.c ****     uint8 enableInterrupts;
1233:.\Generated_Source\PSoC4/PWM.c **** 
1234:.\Generated_Source\PSoC4/PWM.c ****     enableInterrupts = CyEnterCriticalSection();
 1125              		.loc 1 1234 0
 1126 0006 FFF7FEFF 		bl	CyEnterCriticalSection
 1127              	.LVL79:
1235:.\Generated_Source\PSoC4/PWM.c **** 
1236:.\Generated_Source\PSoC4/PWM.c ****     PWM_COMMAND_REG = ((uint32)(mask << command));
 1128              		.loc 1 1236 0
 1129 000a AC40     		lsl	r4, r4, r5
 1130              	.LVL80:
 1131 000c 024B     		ldr	r3, .L92
 1132 000e 1C60     		str	r4, [r3]
1237:.\Generated_Source\PSoC4/PWM.c **** 
1238:.\Generated_Source\PSoC4/PWM.c ****     CyExitCriticalSection(enableInterrupts);
 1133              		.loc 1 1238 0
 1134 0010 FFF7FEFF 		bl	CyExitCriticalSection
 1135              	.LVL81:
1239:.\Generated_Source\PSoC4/PWM.c **** }
 1136              		.loc 1 1239 0
 1137              		@ sp needed
 1138              	.LVL82:
 1139 0014 38BD     		pop	{r3, r4, r5, pc}
 1140              	.L93:
 1141 0016 C046     		.align	2
 1142              	.L92:
 1143 0018 08002040 		.word	1075838984
 1144              		.cfi_endproc
 1145              	.LFE35:
 1146              		.size	PWM_TriggerCommand, .-PWM_TriggerCommand
 1147              		.section	.text.PWM_Enable,"ax",%progbits
 1148              		.align	2
 1149              		.global	PWM_Enable
 1150              		.code	16
 1151              		.thumb_func
 1152              		.type	PWM_Enable, %function
 1153              	PWM_Enable:
 1154              	.LFB3:
 178:.\Generated_Source\PSoC4/PWM.c ****     uint8 enableInterrupts;
ARM GAS  C:\Users\sunyi\AppData\Local\Temp\ccaHIROV.s 			page 43


 1155              		.loc 1 178 0
 1156              		.cfi_startproc
 1157 0000 08B5     		push	{r3, lr}
 1158              		.cfi_def_cfa_offset 8
 1159              		.cfi_offset 3, -8
 1160              		.cfi_offset 14, -4
 181:.\Generated_Source\PSoC4/PWM.c ****     PWM_BLOCK_CONTROL_REG |= PWM_MASK;
 1161              		.loc 1 181 0
 1162 0002 FFF7FEFF 		bl	CyEnterCriticalSection
 1163              	.LVL83:
 182:.\Generated_Source\PSoC4/PWM.c ****     CyExitCriticalSection(enableInterrupts);
 1164              		.loc 1 182 0
 1165 0006 064A     		ldr	r2, .L95
 1166 0008 1168     		ldr	r1, [r2]
 1167 000a 0123     		mov	r3, #1
 1168 000c 0B43     		orr	r3, r1
 1169 000e 1360     		str	r3, [r2]
 183:.\Generated_Source\PSoC4/PWM.c **** 
 1170              		.loc 1 183 0
 1171 0010 FFF7FEFF 		bl	CyExitCriticalSection
 1172              	.LVL84:
 188:.\Generated_Source\PSoC4/PWM.c ****         #endif /* (0u == PWM_PWM_START_SIGNAL_PRESENT) */
 1173              		.loc 1 188 0
 1174 0014 0120     		mov	r0, #1
 1175 0016 1821     		mov	r1, #24
 1176 0018 FFF7FEFF 		bl	PWM_TriggerCommand
 1177              	.LVL85:
 197:.\Generated_Source\PSoC4/PWM.c **** 
 1178              		.loc 1 197 0
 1179              		@ sp needed
 1180 001c 08BD     		pop	{r3, pc}
 1181              	.L96:
 1182 001e C046     		.align	2
 1183              	.L95:
 1184 0020 00002040 		.word	1075838976
 1185              		.cfi_endproc
 1186              	.LFE3:
 1187              		.size	PWM_Enable, .-PWM_Enable
 1188              		.section	.text.PWM_ReadStatus,"ax",%progbits
 1189              		.align	2
 1190              		.global	PWM_ReadStatus
 1191              		.code	16
 1192              		.thumb_func
 1193              		.type	PWM_ReadStatus, %function
 1194              	PWM_ReadStatus:
 1195              	.LFB36:
1240:.\Generated_Source\PSoC4/PWM.c **** 
1241:.\Generated_Source\PSoC4/PWM.c **** 
1242:.\Generated_Source\PSoC4/PWM.c **** /*******************************************************************************
1243:.\Generated_Source\PSoC4/PWM.c **** * Function Name: PWM_ReadStatus
1244:.\Generated_Source\PSoC4/PWM.c **** ********************************************************************************
1245:.\Generated_Source\PSoC4/PWM.c **** *
1246:.\Generated_Source\PSoC4/PWM.c **** * Summary:
1247:.\Generated_Source\PSoC4/PWM.c **** *  Reads the status of the PWM.
1248:.\Generated_Source\PSoC4/PWM.c **** *
1249:.\Generated_Source\PSoC4/PWM.c **** * Parameters:
1250:.\Generated_Source\PSoC4/PWM.c **** *  None
ARM GAS  C:\Users\sunyi\AppData\Local\Temp\ccaHIROV.s 			page 44


1251:.\Generated_Source\PSoC4/PWM.c **** *
1252:.\Generated_Source\PSoC4/PWM.c **** * Return:
1253:.\Generated_Source\PSoC4/PWM.c **** *  Status
1254:.\Generated_Source\PSoC4/PWM.c **** *   Values:
1255:.\Generated_Source\PSoC4/PWM.c **** *     - PWM_STATUS_DOWN    - Set if counting down
1256:.\Generated_Source\PSoC4/PWM.c **** *     - PWM_STATUS_RUNNING - Set if counter is running
1257:.\Generated_Source\PSoC4/PWM.c **** *
1258:.\Generated_Source\PSoC4/PWM.c **** *******************************************************************************/
1259:.\Generated_Source\PSoC4/PWM.c **** uint32 PWM_ReadStatus(void)
1260:.\Generated_Source\PSoC4/PWM.c **** {
 1196              		.loc 1 1260 0
 1197              		.cfi_startproc
1261:.\Generated_Source\PSoC4/PWM.c ****     return ((PWM_STATUS_REG >> PWM_RUNNING_STATUS_SHIFT) |
 1198              		.loc 1 1261 0
 1199 0000 034B     		ldr	r3, .L98
 1200 0002 1868     		ldr	r0, [r3]
 1201 0004 820F     		lsr	r2, r0, #30
1262:.\Generated_Source\PSoC4/PWM.c ****             (PWM_STATUS_REG & PWM_STATUS_DOWN));
 1202              		.loc 1 1262 0
 1203 0006 1B68     		ldr	r3, [r3]
 1204 0008 0120     		mov	r0, #1
 1205 000a 1840     		and	r0, r3
1261:.\Generated_Source\PSoC4/PWM.c ****     return ((PWM_STATUS_REG >> PWM_RUNNING_STATUS_SHIFT) |
 1206              		.loc 1 1261 0
 1207 000c 1043     		orr	r0, r2
1263:.\Generated_Source\PSoC4/PWM.c **** }
 1208              		.loc 1 1263 0
 1209              		@ sp needed
 1210 000e 7047     		bx	lr
 1211              	.L99:
 1212              		.align	2
 1213              	.L98:
 1214 0010 04012040 		.word	1075839236
 1215              		.cfi_endproc
 1216              	.LFE36:
 1217              		.size	PWM_ReadStatus, .-PWM_ReadStatus
 1218              		.section	.text.PWM_SetInterruptMode,"ax",%progbits
 1219              		.align	2
 1220              		.global	PWM_SetInterruptMode
 1221              		.code	16
 1222              		.thumb_func
 1223              		.type	PWM_SetInterruptMode, %function
 1224              	PWM_SetInterruptMode:
 1225              	.LFB37:
1264:.\Generated_Source\PSoC4/PWM.c **** 
1265:.\Generated_Source\PSoC4/PWM.c **** 
1266:.\Generated_Source\PSoC4/PWM.c **** /*******************************************************************************
1267:.\Generated_Source\PSoC4/PWM.c **** * Function Name: PWM_SetInterruptMode
1268:.\Generated_Source\PSoC4/PWM.c **** ********************************************************************************
1269:.\Generated_Source\PSoC4/PWM.c **** *
1270:.\Generated_Source\PSoC4/PWM.c **** * Summary:
1271:.\Generated_Source\PSoC4/PWM.c **** *  Sets the interrupt mask to control which interrupt
1272:.\Generated_Source\PSoC4/PWM.c **** *  requests generate the interrupt signal.
1273:.\Generated_Source\PSoC4/PWM.c **** *
1274:.\Generated_Source\PSoC4/PWM.c **** * Parameters:
1275:.\Generated_Source\PSoC4/PWM.c **** *   interruptMask: Mask of bits to be enabled
1276:.\Generated_Source\PSoC4/PWM.c **** *   Values:
ARM GAS  C:\Users\sunyi\AppData\Local\Temp\ccaHIROV.s 			page 45


1277:.\Generated_Source\PSoC4/PWM.c **** *     - PWM_INTR_MASK_TC       - Terminal count mask
1278:.\Generated_Source\PSoC4/PWM.c **** *     - PWM_INTR_MASK_CC_MATCH - Compare count / capture mask
1279:.\Generated_Source\PSoC4/PWM.c **** *
1280:.\Generated_Source\PSoC4/PWM.c **** * Return:
1281:.\Generated_Source\PSoC4/PWM.c **** *  None
1282:.\Generated_Source\PSoC4/PWM.c **** *
1283:.\Generated_Source\PSoC4/PWM.c **** *******************************************************************************/
1284:.\Generated_Source\PSoC4/PWM.c **** void PWM_SetInterruptMode(uint32 interruptMask)
1285:.\Generated_Source\PSoC4/PWM.c **** {
 1226              		.loc 1 1285 0
 1227              		.cfi_startproc
 1228              	.LVL86:
1286:.\Generated_Source\PSoC4/PWM.c ****     PWM_INTERRUPT_MASK_REG =  interruptMask;
 1229              		.loc 1 1286 0
 1230 0000 014B     		ldr	r3, .L101
 1231 0002 1860     		str	r0, [r3]
1287:.\Generated_Source\PSoC4/PWM.c **** }
 1232              		.loc 1 1287 0
 1233              		@ sp needed
 1234 0004 7047     		bx	lr
 1235              	.L102:
 1236 0006 C046     		.align	2
 1237              	.L101:
 1238 0008 38012040 		.word	1075839288
 1239              		.cfi_endproc
 1240              	.LFE37:
 1241              		.size	PWM_SetInterruptMode, .-PWM_SetInterruptMode
 1242              		.section	.text.PWM_Init,"ax",%progbits
 1243              		.align	2
 1244              		.global	PWM_Init
 1245              		.code	16
 1246              		.thumb_func
 1247              		.type	PWM_Init, %function
 1248              	PWM_Init:
 1249              	.LFB2:
  39:.\Generated_Source\PSoC4/PWM.c **** 
 1250              		.loc 1 39 0
 1251              		.cfi_startproc
 1252 0000 10B5     		push	{r4, lr}
 1253              		.cfi_def_cfa_offset 8
 1254              		.cfi_offset 4, -8
 1255              		.cfi_offset 14, -4
  89:.\Generated_Source\PSoC4/PWM.c **** 
 1256              		.loc 1 89 0
 1257 0002 0E4C     		ldr	r4, .L104
 1258 0004 8023     		mov	r3, #128
 1259 0006 DB04     		lsl	r3, r3, #19
 1260 0008 2360     		str	r3, [r4]
  95:.\Generated_Source\PSoC4/PWM.c ****             
 1261              		.loc 1 95 0
 1262 000a 2368     		ldr	r3, [r4]
 1263 000c 2360     		str	r3, [r4]
 103:.\Generated_Source\PSoC4/PWM.c ****             #endif  /* (PWM_CY_TCPWM_V2 && PWM_PWM_UPDOWN_CNT_USED && !PWM_CY_TCPWM_4000) */
 1264              		.loc 1 103 0
 1265 000e 0020     		mov	r0, #0
 1266 0010 FFF7FEFF 		bl	PWM_WriteCounter
 1267              	.LVL87:
ARM GAS  C:\Users\sunyi\AppData\Local\Temp\ccaHIROV.s 			page 46


 112:.\Generated_Source\PSoC4/PWM.c ****         #endif  /* (PWM__PWM == PWM_PWM_MODE) */
 1268              		.loc 1 112 0
 1269 0014 2368     		ldr	r3, [r4]
 1270 0016 2360     		str	r3, [r4]
 116:.\Generated_Source\PSoC4/PWM.c ****     
 1271              		.loc 1 116 0
 1272 0018 0C22     		mov	r2, #12
 1273 001a 094B     		ldr	r3, .L104+4
 1274 001c 1A60     		str	r2, [r3]
 119:.\Generated_Source\PSoC4/PWM.c **** 
 1275              		.loc 1 119 0
 1276 001e 0120     		mov	r0, #1
 1277 0020 FFF7FEFF 		bl	PWM_SetInterruptMode
 1278              	.LVL88:
 129:.\Generated_Source\PSoC4/PWM.c ****             #endif  /* ( PWM_PWM_LEFT == PWM_PWM_ALIGN) */
 1279              		.loc 1 129 0
 1280 0024 3122     		mov	r2, #49
 1281 0026 074B     		ldr	r3, .L104+8
 1282 0028 1A60     		str	r2, [r3]
 146:.\Generated_Source\PSoC4/PWM.c ****         PWM_WriteCompare(PWM_PWM_COMPARE_VALUE);
 1283              		.loc 1 146 0
 1284 002a FA20     		mov	r0, #250
 1285 002c 4000     		lsl	r0, r0, #1
 1286 002e FFF7FEFF 		bl	PWM_WritePeriod
 1287              	.LVL89:
 147:.\Generated_Source\PSoC4/PWM.c **** 
 1288              		.loc 1 147 0
 1289 0032 FA20     		mov	r0, #250
 1290 0034 FFF7FEFF 		bl	PWM_WriteCompare
 1291              	.LVL90:
 160:.\Generated_Source\PSoC4/PWM.c **** 
 1292              		.loc 1 160 0
 1293              		@ sp needed
 1294 0038 10BD     		pop	{r4, pc}
 1295              	.L105:
 1296 003a C046     		.align	2
 1297              	.L104:
 1298 003c 00012040 		.word	1075839232
 1299 0040 24012040 		.word	1075839268
 1300 0044 28012040 		.word	1075839272
 1301              		.cfi_endproc
 1302              	.LFE2:
 1303              		.size	PWM_Init, .-PWM_Init
 1304              		.section	.text.PWM_Start,"ax",%progbits
 1305              		.align	2
 1306              		.global	PWM_Start
 1307              		.code	16
 1308              		.thumb_func
 1309              		.type	PWM_Start, %function
 1310              	PWM_Start:
 1311              	.LFB4:
 225:.\Generated_Source\PSoC4/PWM.c ****     if (0u == PWM_initVar)
 1312              		.loc 1 225 0
 1313              		.cfi_startproc
 1314 0000 08B5     		push	{r3, lr}
 1315              		.cfi_def_cfa_offset 8
 1316              		.cfi_offset 3, -8
ARM GAS  C:\Users\sunyi\AppData\Local\Temp\ccaHIROV.s 			page 47


 1317              		.cfi_offset 14, -4
 226:.\Generated_Source\PSoC4/PWM.c ****     {
 1318              		.loc 1 226 0
 1319 0002 064B     		ldr	r3, .L108
 1320 0004 1B78     		ldrb	r3, [r3]
 1321 0006 002B     		cmp	r3, #0
 1322 0008 04D1     		bne	.L107
 228:.\Generated_Source\PSoC4/PWM.c ****         PWM_initVar = 1u;
 1323              		.loc 1 228 0
 1324 000a FFF7FEFF 		bl	PWM_Init
 1325              	.LVL91:
 229:.\Generated_Source\PSoC4/PWM.c ****     }
 1326              		.loc 1 229 0
 1327 000e 0122     		mov	r2, #1
 1328 0010 024B     		ldr	r3, .L108
 1329 0012 1A70     		strb	r2, [r3]
 1330              	.L107:
 232:.\Generated_Source\PSoC4/PWM.c **** }
 1331              		.loc 1 232 0
 1332 0014 FFF7FEFF 		bl	PWM_Enable
 1333              	.LVL92:
 233:.\Generated_Source\PSoC4/PWM.c **** 
 1334              		.loc 1 233 0
 1335              		@ sp needed
 1336 0018 08BD     		pop	{r3, pc}
 1337              	.L109:
 1338 001a C046     		.align	2
 1339              	.L108:
 1340 001c 00000000 		.word	.LANCHOR0
 1341              		.cfi_endproc
 1342              	.LFE4:
 1343              		.size	PWM_Start, .-PWM_Start
 1344              		.section	.text.PWM_GetInterruptSourceMasked,"ax",%progbits
 1345              		.align	2
 1346              		.global	PWM_GetInterruptSourceMasked
 1347              		.code	16
 1348              		.thumb_func
 1349              		.type	PWM_GetInterruptSourceMasked, %function
 1350              	PWM_GetInterruptSourceMasked:
 1351              	.LFB38:
1288:.\Generated_Source\PSoC4/PWM.c **** 
1289:.\Generated_Source\PSoC4/PWM.c **** 
1290:.\Generated_Source\PSoC4/PWM.c **** /*******************************************************************************
1291:.\Generated_Source\PSoC4/PWM.c **** * Function Name: PWM_GetInterruptSourceMasked
1292:.\Generated_Source\PSoC4/PWM.c **** ********************************************************************************
1293:.\Generated_Source\PSoC4/PWM.c **** *
1294:.\Generated_Source\PSoC4/PWM.c **** * Summary:
1295:.\Generated_Source\PSoC4/PWM.c **** *  Gets the interrupt requests masked by the interrupt mask.
1296:.\Generated_Source\PSoC4/PWM.c **** *
1297:.\Generated_Source\PSoC4/PWM.c **** * Parameters:
1298:.\Generated_Source\PSoC4/PWM.c **** *   None
1299:.\Generated_Source\PSoC4/PWM.c **** *
1300:.\Generated_Source\PSoC4/PWM.c **** * Return:
1301:.\Generated_Source\PSoC4/PWM.c **** *  Masked interrupt source
1302:.\Generated_Source\PSoC4/PWM.c **** *   Values:
1303:.\Generated_Source\PSoC4/PWM.c **** *     - PWM_INTR_MASK_TC       - Terminal count mask
1304:.\Generated_Source\PSoC4/PWM.c **** *     - PWM_INTR_MASK_CC_MATCH - Compare count / capture mask
ARM GAS  C:\Users\sunyi\AppData\Local\Temp\ccaHIROV.s 			page 48


1305:.\Generated_Source\PSoC4/PWM.c **** *
1306:.\Generated_Source\PSoC4/PWM.c **** *******************************************************************************/
1307:.\Generated_Source\PSoC4/PWM.c **** uint32 PWM_GetInterruptSourceMasked(void)
1308:.\Generated_Source\PSoC4/PWM.c **** {
 1352              		.loc 1 1308 0
 1353              		.cfi_startproc
1309:.\Generated_Source\PSoC4/PWM.c ****     return (PWM_INTERRUPT_MASKED_REG);
 1354              		.loc 1 1309 0
 1355 0000 014B     		ldr	r3, .L111
 1356 0002 1868     		ldr	r0, [r3]
1310:.\Generated_Source\PSoC4/PWM.c **** }
 1357              		.loc 1 1310 0
 1358              		@ sp needed
 1359 0004 7047     		bx	lr
 1360              	.L112:
 1361 0006 C046     		.align	2
 1362              	.L111:
 1363 0008 3C012040 		.word	1075839292
 1364              		.cfi_endproc
 1365              	.LFE38:
 1366              		.size	PWM_GetInterruptSourceMasked, .-PWM_GetInterruptSourceMasked
 1367              		.section	.text.PWM_GetInterruptSource,"ax",%progbits
 1368              		.align	2
 1369              		.global	PWM_GetInterruptSource
 1370              		.code	16
 1371              		.thumb_func
 1372              		.type	PWM_GetInterruptSource, %function
 1373              	PWM_GetInterruptSource:
 1374              	.LFB39:
1311:.\Generated_Source\PSoC4/PWM.c **** 
1312:.\Generated_Source\PSoC4/PWM.c **** 
1313:.\Generated_Source\PSoC4/PWM.c **** /*******************************************************************************
1314:.\Generated_Source\PSoC4/PWM.c **** * Function Name: PWM_GetInterruptSource
1315:.\Generated_Source\PSoC4/PWM.c **** ********************************************************************************
1316:.\Generated_Source\PSoC4/PWM.c **** *
1317:.\Generated_Source\PSoC4/PWM.c **** * Summary:
1318:.\Generated_Source\PSoC4/PWM.c **** *  Gets the interrupt requests (without masking).
1319:.\Generated_Source\PSoC4/PWM.c **** *
1320:.\Generated_Source\PSoC4/PWM.c **** * Parameters:
1321:.\Generated_Source\PSoC4/PWM.c **** *  None
1322:.\Generated_Source\PSoC4/PWM.c **** *
1323:.\Generated_Source\PSoC4/PWM.c **** * Return:
1324:.\Generated_Source\PSoC4/PWM.c **** *  Interrupt request value
1325:.\Generated_Source\PSoC4/PWM.c **** *   Values:
1326:.\Generated_Source\PSoC4/PWM.c **** *     - PWM_INTR_MASK_TC       - Terminal count mask
1327:.\Generated_Source\PSoC4/PWM.c **** *     - PWM_INTR_MASK_CC_MATCH - Compare count / capture mask
1328:.\Generated_Source\PSoC4/PWM.c **** *
1329:.\Generated_Source\PSoC4/PWM.c **** *******************************************************************************/
1330:.\Generated_Source\PSoC4/PWM.c **** uint32 PWM_GetInterruptSource(void)
1331:.\Generated_Source\PSoC4/PWM.c **** {
 1375              		.loc 1 1331 0
 1376              		.cfi_startproc
1332:.\Generated_Source\PSoC4/PWM.c ****     return (PWM_INTERRUPT_REQ_REG);
 1377              		.loc 1 1332 0
 1378 0000 014B     		ldr	r3, .L114
 1379 0002 1868     		ldr	r0, [r3]
1333:.\Generated_Source\PSoC4/PWM.c **** }
ARM GAS  C:\Users\sunyi\AppData\Local\Temp\ccaHIROV.s 			page 49


 1380              		.loc 1 1333 0
 1381              		@ sp needed
 1382 0004 7047     		bx	lr
 1383              	.L115:
 1384 0006 C046     		.align	2
 1385              	.L114:
 1386 0008 30012040 		.word	1075839280
 1387              		.cfi_endproc
 1388              	.LFE39:
 1389              		.size	PWM_GetInterruptSource, .-PWM_GetInterruptSource
 1390              		.section	.text.PWM_ClearInterrupt,"ax",%progbits
 1391              		.align	2
 1392              		.global	PWM_ClearInterrupt
 1393              		.code	16
 1394              		.thumb_func
 1395              		.type	PWM_ClearInterrupt, %function
 1396              	PWM_ClearInterrupt:
 1397              	.LFB40:
1334:.\Generated_Source\PSoC4/PWM.c **** 
1335:.\Generated_Source\PSoC4/PWM.c **** 
1336:.\Generated_Source\PSoC4/PWM.c **** /*******************************************************************************
1337:.\Generated_Source\PSoC4/PWM.c **** * Function Name: PWM_ClearInterrupt
1338:.\Generated_Source\PSoC4/PWM.c **** ********************************************************************************
1339:.\Generated_Source\PSoC4/PWM.c **** *
1340:.\Generated_Source\PSoC4/PWM.c **** * Summary:
1341:.\Generated_Source\PSoC4/PWM.c **** *  Clears the interrupt request.
1342:.\Generated_Source\PSoC4/PWM.c **** *
1343:.\Generated_Source\PSoC4/PWM.c **** * Parameters:
1344:.\Generated_Source\PSoC4/PWM.c **** *   interruptMask: Mask of interrupts to clear
1345:.\Generated_Source\PSoC4/PWM.c **** *   Values:
1346:.\Generated_Source\PSoC4/PWM.c **** *     - PWM_INTR_MASK_TC       - Terminal count mask
1347:.\Generated_Source\PSoC4/PWM.c **** *     - PWM_INTR_MASK_CC_MATCH - Compare count / capture mask
1348:.\Generated_Source\PSoC4/PWM.c **** *
1349:.\Generated_Source\PSoC4/PWM.c **** * Return:
1350:.\Generated_Source\PSoC4/PWM.c **** *  None
1351:.\Generated_Source\PSoC4/PWM.c **** *
1352:.\Generated_Source\PSoC4/PWM.c **** *******************************************************************************/
1353:.\Generated_Source\PSoC4/PWM.c **** void PWM_ClearInterrupt(uint32 interruptMask)
1354:.\Generated_Source\PSoC4/PWM.c **** {
 1398              		.loc 1 1354 0
 1399              		.cfi_startproc
 1400              	.LVL93:
1355:.\Generated_Source\PSoC4/PWM.c ****     PWM_INTERRUPT_REQ_REG = interruptMask;
 1401              		.loc 1 1355 0
 1402 0000 014B     		ldr	r3, .L117
 1403 0002 1860     		str	r0, [r3]
1356:.\Generated_Source\PSoC4/PWM.c **** }
 1404              		.loc 1 1356 0
 1405              		@ sp needed
 1406 0004 7047     		bx	lr
 1407              	.L118:
 1408 0006 C046     		.align	2
 1409              	.L117:
 1410 0008 30012040 		.word	1075839280
 1411              		.cfi_endproc
 1412              	.LFE40:
 1413              		.size	PWM_ClearInterrupt, .-PWM_ClearInterrupt
ARM GAS  C:\Users\sunyi\AppData\Local\Temp\ccaHIROV.s 			page 50


 1414              		.section	.text.PWM_SetInterrupt,"ax",%progbits
 1415              		.align	2
 1416              		.global	PWM_SetInterrupt
 1417              		.code	16
 1418              		.thumb_func
 1419              		.type	PWM_SetInterrupt, %function
 1420              	PWM_SetInterrupt:
 1421              	.LFB41:
1357:.\Generated_Source\PSoC4/PWM.c **** 
1358:.\Generated_Source\PSoC4/PWM.c **** 
1359:.\Generated_Source\PSoC4/PWM.c **** /*******************************************************************************
1360:.\Generated_Source\PSoC4/PWM.c **** * Function Name: PWM_SetInterrupt
1361:.\Generated_Source\PSoC4/PWM.c **** ********************************************************************************
1362:.\Generated_Source\PSoC4/PWM.c **** *
1363:.\Generated_Source\PSoC4/PWM.c **** * Summary:
1364:.\Generated_Source\PSoC4/PWM.c **** *  Sets a software interrupt request.
1365:.\Generated_Source\PSoC4/PWM.c **** *
1366:.\Generated_Source\PSoC4/PWM.c **** * Parameters:
1367:.\Generated_Source\PSoC4/PWM.c **** *   interruptMask: Mask of interrupts to set
1368:.\Generated_Source\PSoC4/PWM.c **** *   Values:
1369:.\Generated_Source\PSoC4/PWM.c **** *     - PWM_INTR_MASK_TC       - Terminal count mask
1370:.\Generated_Source\PSoC4/PWM.c **** *     - PWM_INTR_MASK_CC_MATCH - Compare count / capture mask
1371:.\Generated_Source\PSoC4/PWM.c **** *
1372:.\Generated_Source\PSoC4/PWM.c **** * Return:
1373:.\Generated_Source\PSoC4/PWM.c **** *  None
1374:.\Generated_Source\PSoC4/PWM.c **** *
1375:.\Generated_Source\PSoC4/PWM.c **** *******************************************************************************/
1376:.\Generated_Source\PSoC4/PWM.c **** void PWM_SetInterrupt(uint32 interruptMask)
1377:.\Generated_Source\PSoC4/PWM.c **** {
 1422              		.loc 1 1377 0
 1423              		.cfi_startproc
 1424              	.LVL94:
1378:.\Generated_Source\PSoC4/PWM.c ****     PWM_INTERRUPT_SET_REG = interruptMask;
 1425              		.loc 1 1378 0
 1426 0000 014B     		ldr	r3, .L120
 1427 0002 1860     		str	r0, [r3]
1379:.\Generated_Source\PSoC4/PWM.c **** }
 1428              		.loc 1 1379 0
 1429              		@ sp needed
 1430 0004 7047     		bx	lr
 1431              	.L121:
 1432 0006 C046     		.align	2
 1433              	.L120:
 1434 0008 34012040 		.word	1075839284
 1435              		.cfi_endproc
 1436              	.LFE41:
 1437              		.size	PWM_SetInterrupt, .-PWM_SetInterrupt
 1438              		.global	PWM_initVar
 1439              		.bss
 1440              		.set	.LANCHOR0,. + 0
 1441              		.type	PWM_initVar, %object
 1442              		.size	PWM_initVar, 1
 1443              	PWM_initVar:
 1444 0000 00       		.space	1
 1445              		.text
 1446              	.Letext0:
 1447              		.file 2 ".\\Generated_Source\\PSoC4\\cytypes.h"
ARM GAS  C:\Users\sunyi\AppData\Local\Temp\ccaHIROV.s 			page 51


 1448              		.file 3 ".\\Generated_Source\\PSoC4\\CyLib.h"